
ctarget:     file format elf64-x86-64


Disassembly of section .init:

0000000000400c48 <_init>:
  400c48:	48 83 ec 08          	sub    $0x8,%rsp
  400c4c:	48 8b 05 a5 43 20 00 	mov    0x2043a5(%rip),%rax        # 604ff8 <__gmon_start__>
  400c53:	48 85 c0             	test   %rax,%rax
  400c56:	74 02                	je     400c5a <_init+0x12>
  400c58:	ff d0                	callq  *%rax
  400c5a:	48 83 c4 08          	add    $0x8,%rsp
  400c5e:	c3                   	retq   

Disassembly of section .plt:

0000000000400c60 <.plt>:
  400c60:	ff 35 a2 43 20 00    	pushq  0x2043a2(%rip)        # 605008 <_GLOBAL_OFFSET_TABLE_+0x8>
  400c66:	ff 25 a4 43 20 00    	jmpq   *0x2043a4(%rip)        # 605010 <_GLOBAL_OFFSET_TABLE_+0x10>
  400c6c:	0f 1f 40 00          	nopl   0x0(%rax)

0000000000400c70 <strcasecmp@plt>:
  400c70:	ff 25 a2 43 20 00    	jmpq   *0x2043a2(%rip)        # 605018 <strcasecmp@GLIBC_2.2.5>
  400c76:	68 00 00 00 00       	pushq  $0x0
  400c7b:	e9 e0 ff ff ff       	jmpq   400c60 <.plt>

0000000000400c80 <__errno_location@plt>:
  400c80:	ff 25 9a 43 20 00    	jmpq   *0x20439a(%rip)        # 605020 <__errno_location@GLIBC_2.2.5>
  400c86:	68 01 00 00 00       	pushq  $0x1
  400c8b:	e9 d0 ff ff ff       	jmpq   400c60 <.plt>

0000000000400c90 <srandom@plt>:
  400c90:	ff 25 92 43 20 00    	jmpq   *0x204392(%rip)        # 605028 <srandom@GLIBC_2.2.5>
  400c96:	68 02 00 00 00       	pushq  $0x2
  400c9b:	e9 c0 ff ff ff       	jmpq   400c60 <.plt>

0000000000400ca0 <strncmp@plt>:
  400ca0:	ff 25 8a 43 20 00    	jmpq   *0x20438a(%rip)        # 605030 <strncmp@GLIBC_2.2.5>
  400ca6:	68 03 00 00 00       	pushq  $0x3
  400cab:	e9 b0 ff ff ff       	jmpq   400c60 <.plt>

0000000000400cb0 <strcpy@plt>:
  400cb0:	ff 25 82 43 20 00    	jmpq   *0x204382(%rip)        # 605038 <strcpy@GLIBC_2.2.5>
  400cb6:	68 04 00 00 00       	pushq  $0x4
  400cbb:	e9 a0 ff ff ff       	jmpq   400c60 <.plt>

0000000000400cc0 <puts@plt>:
  400cc0:	ff 25 7a 43 20 00    	jmpq   *0x20437a(%rip)        # 605040 <puts@GLIBC_2.2.5>
  400cc6:	68 05 00 00 00       	pushq  $0x5
  400ccb:	e9 90 ff ff ff       	jmpq   400c60 <.plt>

0000000000400cd0 <write@plt>:
  400cd0:	ff 25 72 43 20 00    	jmpq   *0x204372(%rip)        # 605048 <write@GLIBC_2.2.5>
  400cd6:	68 06 00 00 00       	pushq  $0x6
  400cdb:	e9 80 ff ff ff       	jmpq   400c60 <.plt>

0000000000400ce0 <__stack_chk_fail@plt>:
  400ce0:	ff 25 6a 43 20 00    	jmpq   *0x20436a(%rip)        # 605050 <__stack_chk_fail@GLIBC_2.4>
  400ce6:	68 07 00 00 00       	pushq  $0x7
  400ceb:	e9 70 ff ff ff       	jmpq   400c60 <.plt>

0000000000400cf0 <mmap@plt>:
  400cf0:	ff 25 62 43 20 00    	jmpq   *0x204362(%rip)        # 605058 <mmap@GLIBC_2.2.5>
  400cf6:	68 08 00 00 00       	pushq  $0x8
  400cfb:	e9 60 ff ff ff       	jmpq   400c60 <.plt>

0000000000400d00 <memset@plt>:
  400d00:	ff 25 5a 43 20 00    	jmpq   *0x20435a(%rip)        # 605060 <memset@GLIBC_2.2.5>
  400d06:	68 09 00 00 00       	pushq  $0x9
  400d0b:	e9 50 ff ff ff       	jmpq   400c60 <.plt>

0000000000400d10 <alarm@plt>:
  400d10:	ff 25 52 43 20 00    	jmpq   *0x204352(%rip)        # 605068 <alarm@GLIBC_2.2.5>
  400d16:	68 0a 00 00 00       	pushq  $0xa
  400d1b:	e9 40 ff ff ff       	jmpq   400c60 <.plt>

0000000000400d20 <close@plt>:
  400d20:	ff 25 4a 43 20 00    	jmpq   *0x20434a(%rip)        # 605070 <close@GLIBC_2.2.5>
  400d26:	68 0b 00 00 00       	pushq  $0xb
  400d2b:	e9 30 ff ff ff       	jmpq   400c60 <.plt>

0000000000400d30 <read@plt>:
  400d30:	ff 25 42 43 20 00    	jmpq   *0x204342(%rip)        # 605078 <read@GLIBC_2.2.5>
  400d36:	68 0c 00 00 00       	pushq  $0xc
  400d3b:	e9 20 ff ff ff       	jmpq   400c60 <.plt>

0000000000400d40 <signal@plt>:
  400d40:	ff 25 3a 43 20 00    	jmpq   *0x20433a(%rip)        # 605080 <signal@GLIBC_2.2.5>
  400d46:	68 0d 00 00 00       	pushq  $0xd
  400d4b:	e9 10 ff ff ff       	jmpq   400c60 <.plt>

0000000000400d50 <gethostbyname@plt>:
  400d50:	ff 25 32 43 20 00    	jmpq   *0x204332(%rip)        # 605088 <gethostbyname@GLIBC_2.2.5>
  400d56:	68 0e 00 00 00       	pushq  $0xe
  400d5b:	e9 00 ff ff ff       	jmpq   400c60 <.plt>

0000000000400d60 <__memmove_chk@plt>:
  400d60:	ff 25 2a 43 20 00    	jmpq   *0x20432a(%rip)        # 605090 <__memmove_chk@GLIBC_2.3.4>
  400d66:	68 0f 00 00 00       	pushq  $0xf
  400d6b:	e9 f0 fe ff ff       	jmpq   400c60 <.plt>

0000000000400d70 <strtol@plt>:
  400d70:	ff 25 22 43 20 00    	jmpq   *0x204322(%rip)        # 605098 <strtol@GLIBC_2.2.5>
  400d76:	68 10 00 00 00       	pushq  $0x10
  400d7b:	e9 e0 fe ff ff       	jmpq   400c60 <.plt>

0000000000400d80 <memcpy@plt>:
  400d80:	ff 25 1a 43 20 00    	jmpq   *0x20431a(%rip)        # 6050a0 <memcpy@GLIBC_2.14>
  400d86:	68 11 00 00 00       	pushq  $0x11
  400d8b:	e9 d0 fe ff ff       	jmpq   400c60 <.plt>

0000000000400d90 <time@plt>:
  400d90:	ff 25 12 43 20 00    	jmpq   *0x204312(%rip)        # 6050a8 <time@GLIBC_2.2.5>
  400d96:	68 12 00 00 00       	pushq  $0x12
  400d9b:	e9 c0 fe ff ff       	jmpq   400c60 <.plt>

0000000000400da0 <random@plt>:
  400da0:	ff 25 0a 43 20 00    	jmpq   *0x20430a(%rip)        # 6050b0 <random@GLIBC_2.2.5>
  400da6:	68 13 00 00 00       	pushq  $0x13
  400dab:	e9 b0 fe ff ff       	jmpq   400c60 <.plt>

0000000000400db0 <_IO_getc@plt>:
  400db0:	ff 25 02 43 20 00    	jmpq   *0x204302(%rip)        # 6050b8 <_IO_getc@GLIBC_2.2.5>
  400db6:	68 14 00 00 00       	pushq  $0x14
  400dbb:	e9 a0 fe ff ff       	jmpq   400c60 <.plt>

0000000000400dc0 <__isoc99_sscanf@plt>:
  400dc0:	ff 25 fa 42 20 00    	jmpq   *0x2042fa(%rip)        # 6050c0 <__isoc99_sscanf@GLIBC_2.7>
  400dc6:	68 15 00 00 00       	pushq  $0x15
  400dcb:	e9 90 fe ff ff       	jmpq   400c60 <.plt>

0000000000400dd0 <munmap@plt>:
  400dd0:	ff 25 f2 42 20 00    	jmpq   *0x2042f2(%rip)        # 6050c8 <munmap@GLIBC_2.2.5>
  400dd6:	68 16 00 00 00       	pushq  $0x16
  400ddb:	e9 80 fe ff ff       	jmpq   400c60 <.plt>

0000000000400de0 <__printf_chk@plt>:
  400de0:	ff 25 ea 42 20 00    	jmpq   *0x2042ea(%rip)        # 6050d0 <__printf_chk@GLIBC_2.3.4>
  400de6:	68 17 00 00 00       	pushq  $0x17
  400deb:	e9 70 fe ff ff       	jmpq   400c60 <.plt>

0000000000400df0 <fopen@plt>:
  400df0:	ff 25 e2 42 20 00    	jmpq   *0x2042e2(%rip)        # 6050d8 <fopen@GLIBC_2.2.5>
  400df6:	68 18 00 00 00       	pushq  $0x18
  400dfb:	e9 60 fe ff ff       	jmpq   400c60 <.plt>

0000000000400e00 <getopt@plt>:
  400e00:	ff 25 da 42 20 00    	jmpq   *0x2042da(%rip)        # 6050e0 <getopt@GLIBC_2.2.5>
  400e06:	68 19 00 00 00       	pushq  $0x19
  400e0b:	e9 50 fe ff ff       	jmpq   400c60 <.plt>

0000000000400e10 <strtoul@plt>:
  400e10:	ff 25 d2 42 20 00    	jmpq   *0x2042d2(%rip)        # 6050e8 <strtoul@GLIBC_2.2.5>
  400e16:	68 1a 00 00 00       	pushq  $0x1a
  400e1b:	e9 40 fe ff ff       	jmpq   400c60 <.plt>

0000000000400e20 <gethostname@plt>:
  400e20:	ff 25 ca 42 20 00    	jmpq   *0x2042ca(%rip)        # 6050f0 <gethostname@GLIBC_2.2.5>
  400e26:	68 1b 00 00 00       	pushq  $0x1b
  400e2b:	e9 30 fe ff ff       	jmpq   400c60 <.plt>

0000000000400e30 <exit@plt>:
  400e30:	ff 25 c2 42 20 00    	jmpq   *0x2042c2(%rip)        # 6050f8 <exit@GLIBC_2.2.5>
  400e36:	68 1c 00 00 00       	pushq  $0x1c
  400e3b:	e9 20 fe ff ff       	jmpq   400c60 <.plt>

0000000000400e40 <connect@plt>:
  400e40:	ff 25 ba 42 20 00    	jmpq   *0x2042ba(%rip)        # 605100 <connect@GLIBC_2.2.5>
  400e46:	68 1d 00 00 00       	pushq  $0x1d
  400e4b:	e9 10 fe ff ff       	jmpq   400c60 <.plt>

0000000000400e50 <__fprintf_chk@plt>:
  400e50:	ff 25 b2 42 20 00    	jmpq   *0x2042b2(%rip)        # 605108 <__fprintf_chk@GLIBC_2.3.4>
  400e56:	68 1e 00 00 00       	pushq  $0x1e
  400e5b:	e9 00 fe ff ff       	jmpq   400c60 <.plt>

0000000000400e60 <__sprintf_chk@plt>:
  400e60:	ff 25 aa 42 20 00    	jmpq   *0x2042aa(%rip)        # 605110 <__sprintf_chk@GLIBC_2.3.4>
  400e66:	68 1f 00 00 00       	pushq  $0x1f
  400e6b:	e9 f0 fd ff ff       	jmpq   400c60 <.plt>

0000000000400e70 <socket@plt>:
  400e70:	ff 25 a2 42 20 00    	jmpq   *0x2042a2(%rip)        # 605118 <socket@GLIBC_2.2.5>
  400e76:	68 20 00 00 00       	pushq  $0x20
  400e7b:	e9 e0 fd ff ff       	jmpq   400c60 <.plt>

Disassembly of section .text:

0000000000400e80 <_start>:
  400e80:	31 ed                	xor    %ebp,%ebp
  400e82:	49 89 d1             	mov    %rdx,%r9
  400e85:	5e                   	pop    %rsi
  400e86:	48 89 e2             	mov    %rsp,%rdx
  400e89:	48 83 e4 f0          	and    $0xfffffffffffffff0,%rsp
  400e8d:	50                   	push   %rax
  400e8e:	54                   	push   %rsp
  400e8f:	49 c7 c0 e0 2f 40 00 	mov    $0x402fe0,%r8
  400e96:	48 c7 c1 70 2f 40 00 	mov    $0x402f70,%rcx
  400e9d:	48 c7 c7 9c 11 40 00 	mov    $0x40119c,%rdi
  400ea4:	ff 15 46 41 20 00    	callq  *0x204146(%rip)        # 604ff0 <__libc_start_main@GLIBC_2.2.5>
  400eaa:	f4                   	hlt    
  400eab:	0f 1f 44 00 00       	nopl   0x0(%rax,%rax,1)

0000000000400eb0 <_dl_relocate_static_pie>:
  400eb0:	f3 c3                	repz retq 
  400eb2:	66 2e 0f 1f 84 00 00 	nopw   %cs:0x0(%rax,%rax,1)
  400eb9:	00 00 00 
  400ebc:	0f 1f 40 00          	nopl   0x0(%rax)

0000000000400ec0 <deregister_tm_clones>:
  400ec0:	55                   	push   %rbp
  400ec1:	b8 90 54 60 00       	mov    $0x605490,%eax
  400ec6:	48 3d 90 54 60 00    	cmp    $0x605490,%rax
  400ecc:	48 89 e5             	mov    %rsp,%rbp
  400ecf:	74 17                	je     400ee8 <deregister_tm_clones+0x28>
  400ed1:	b8 00 00 00 00       	mov    $0x0,%eax
  400ed6:	48 85 c0             	test   %rax,%rax
  400ed9:	74 0d                	je     400ee8 <deregister_tm_clones+0x28>
  400edb:	5d                   	pop    %rbp
  400edc:	bf 90 54 60 00       	mov    $0x605490,%edi
  400ee1:	ff e0                	jmpq   *%rax
  400ee3:	0f 1f 44 00 00       	nopl   0x0(%rax,%rax,1)
  400ee8:	5d                   	pop    %rbp
  400ee9:	c3                   	retq   
  400eea:	66 0f 1f 44 00 00    	nopw   0x0(%rax,%rax,1)

0000000000400ef0 <register_tm_clones>:
  400ef0:	be 90 54 60 00       	mov    $0x605490,%esi
  400ef5:	55                   	push   %rbp
  400ef6:	48 81 ee 90 54 60 00 	sub    $0x605490,%rsi
  400efd:	48 89 e5             	mov    %rsp,%rbp
  400f00:	48 c1 fe 03          	sar    $0x3,%rsi
  400f04:	48 89 f0             	mov    %rsi,%rax
  400f07:	48 c1 e8 3f          	shr    $0x3f,%rax
  400f0b:	48 01 c6             	add    %rax,%rsi
  400f0e:	48 d1 fe             	sar    %rsi
  400f11:	74 15                	je     400f28 <register_tm_clones+0x38>
  400f13:	b8 00 00 00 00       	mov    $0x0,%eax
  400f18:	48 85 c0             	test   %rax,%rax
  400f1b:	74 0b                	je     400f28 <register_tm_clones+0x38>
  400f1d:	5d                   	pop    %rbp
  400f1e:	bf 90 54 60 00       	mov    $0x605490,%edi
  400f23:	ff e0                	jmpq   *%rax
  400f25:	0f 1f 00             	nopl   (%rax)
  400f28:	5d                   	pop    %rbp
  400f29:	c3                   	retq   
  400f2a:	66 0f 1f 44 00 00    	nopw   0x0(%rax,%rax,1)

0000000000400f30 <__do_global_dtors_aux>:
  400f30:	80 3d 91 45 20 00 00 	cmpb   $0x0,0x204591(%rip)        # 6054c8 <completed.7696>
  400f37:	75 17                	jne    400f50 <__do_global_dtors_aux+0x20>
  400f39:	55                   	push   %rbp
  400f3a:	48 89 e5             	mov    %rsp,%rbp
  400f3d:	e8 7e ff ff ff       	callq  400ec0 <deregister_tm_clones>
  400f42:	c6 05 7f 45 20 00 01 	movb   $0x1,0x20457f(%rip)        # 6054c8 <completed.7696>
  400f49:	5d                   	pop    %rbp
  400f4a:	c3                   	retq   
  400f4b:	0f 1f 44 00 00       	nopl   0x0(%rax,%rax,1)
  400f50:	f3 c3                	repz retq 
  400f52:	0f 1f 40 00          	nopl   0x0(%rax)
  400f56:	66 2e 0f 1f 84 00 00 	nopw   %cs:0x0(%rax,%rax,1)
  400f5d:	00 00 00 

0000000000400f60 <frame_dummy>:
  400f60:	55                   	push   %rbp
  400f61:	48 89 e5             	mov    %rsp,%rbp
  400f64:	5d                   	pop    %rbp
  400f65:	eb 89                	jmp    400ef0 <register_tm_clones>

0000000000400f67 <usage>:
  400f67:	48 83 ec 08          	sub    $0x8,%rsp
  400f6b:	48 89 fa             	mov    %rdi,%rdx
  400f6e:	83 3d 93 45 20 00 00 	cmpl   $0x0,0x204593(%rip)        # 605508 <is_checker>
  400f75:	74 50                	je     400fc7 <usage+0x60>
  400f77:	48 8d 35 7a 20 00 00 	lea    0x207a(%rip),%rsi        # 402ff8 <_IO_stdin_used+0x8>
  400f7e:	bf 01 00 00 00       	mov    $0x1,%edi
  400f83:	b8 00 00 00 00       	mov    $0x0,%eax
  400f88:	e8 53 fe ff ff       	callq  400de0 <__printf_chk@plt>
  400f8d:	48 8d 3d 9c 20 00 00 	lea    0x209c(%rip),%rdi        # 403030 <_IO_stdin_used+0x40>
  400f94:	e8 27 fd ff ff       	callq  400cc0 <puts@plt>
  400f99:	48 8d 3d 08 22 00 00 	lea    0x2208(%rip),%rdi        # 4031a8 <_IO_stdin_used+0x1b8>
  400fa0:	e8 1b fd ff ff       	callq  400cc0 <puts@plt>
  400fa5:	48 8d 3d ac 20 00 00 	lea    0x20ac(%rip),%rdi        # 403058 <_IO_stdin_used+0x68>
  400fac:	e8 0f fd ff ff       	callq  400cc0 <puts@plt>
  400fb1:	48 8d 3d 0a 22 00 00 	lea    0x220a(%rip),%rdi        # 4031c2 <_IO_stdin_used+0x1d2>
  400fb8:	e8 03 fd ff ff       	callq  400cc0 <puts@plt>
  400fbd:	bf 00 00 00 00       	mov    $0x0,%edi
  400fc2:	e8 69 fe ff ff       	callq  400e30 <exit@plt>
  400fc7:	48 8d 35 10 22 00 00 	lea    0x2210(%rip),%rsi        # 4031de <_IO_stdin_used+0x1ee>
  400fce:	bf 01 00 00 00       	mov    $0x1,%edi
  400fd3:	b8 00 00 00 00       	mov    $0x0,%eax
  400fd8:	e8 03 fe ff ff       	callq  400de0 <__printf_chk@plt>
  400fdd:	48 8d 3d 9c 20 00 00 	lea    0x209c(%rip),%rdi        # 403080 <_IO_stdin_used+0x90>
  400fe4:	e8 d7 fc ff ff       	callq  400cc0 <puts@plt>
  400fe9:	48 8d 3d b8 20 00 00 	lea    0x20b8(%rip),%rdi        # 4030a8 <_IO_stdin_used+0xb8>
  400ff0:	e8 cb fc ff ff       	callq  400cc0 <puts@plt>
  400ff5:	48 8d 3d 00 22 00 00 	lea    0x2200(%rip),%rdi        # 4031fc <_IO_stdin_used+0x20c>
  400ffc:	e8 bf fc ff ff       	callq  400cc0 <puts@plt>
  401001:	eb ba                	jmp    400fbd <usage+0x56>

0000000000401003 <initialize_target>:
  401003:	55                   	push   %rbp
  401004:	53                   	push   %rbx
  401005:	48 81 ec 18 21 00 00 	sub    $0x2118,%rsp
  40100c:	89 f5                	mov    %esi,%ebp
  40100e:	64 48 8b 04 25 28 00 	mov    %fs:0x28,%rax
  401015:	00 00 
  401017:	48 89 84 24 08 21 00 	mov    %rax,0x2108(%rsp)
  40101e:	00 
  40101f:	31 c0                	xor    %eax,%eax
  401021:	89 3d d1 44 20 00    	mov    %edi,0x2044d1(%rip)        # 6054f8 <check_level>
  401027:	8b 3d 03 41 20 00    	mov    0x204103(%rip),%edi        # 605130 <target_id>
  40102d:	e8 11 1f 00 00       	callq  402f43 <gencookie>
  401032:	89 05 cc 44 20 00    	mov    %eax,0x2044cc(%rip)        # 605504 <cookie>
  401038:	89 c7                	mov    %eax,%edi
  40103a:	e8 04 1f 00 00       	callq  402f43 <gencookie>
  40103f:	89 05 bb 44 20 00    	mov    %eax,0x2044bb(%rip)        # 605500 <authkey>
  401045:	8b 05 e5 40 20 00    	mov    0x2040e5(%rip),%eax        # 605130 <target_id>
  40104b:	8d 78 01             	lea    0x1(%rax),%edi
  40104e:	e8 3d fc ff ff       	callq  400c90 <srandom@plt>
  401053:	e8 48 fd ff ff       	callq  400da0 <random@plt>
  401058:	89 c7                	mov    %eax,%edi
  40105a:	e8 28 03 00 00       	callq  401387 <scramble>
  40105f:	89 c3                	mov    %eax,%ebx
  401061:	85 ed                	test   %ebp,%ebp
  401063:	75 54                	jne    4010b9 <initialize_target+0xb6>
  401065:	b8 00 00 00 00       	mov    $0x0,%eax
  40106a:	01 d8                	add    %ebx,%eax
  40106c:	0f b7 c0             	movzwl %ax,%eax
  40106f:	8d 04 c5 00 01 00 00 	lea    0x100(,%rax,8),%eax
  401076:	89 c0                	mov    %eax,%eax
  401078:	48 89 05 01 44 20 00 	mov    %rax,0x204401(%rip)        # 605480 <buf_offset>
  40107f:	c6 05 a2 50 20 00 63 	movb   $0x63,0x2050a2(%rip)        # 606128 <target_prefix>
  401086:	83 3d fb 43 20 00 00 	cmpl   $0x0,0x2043fb(%rip)        # 605488 <notify>
  40108d:	74 09                	je     401098 <initialize_target+0x95>
  40108f:	83 3d 72 44 20 00 00 	cmpl   $0x0,0x204472(%rip)        # 605508 <is_checker>
  401096:	74 39                	je     4010d1 <initialize_target+0xce>
  401098:	48 8b 84 24 08 21 00 	mov    0x2108(%rsp),%rax
  40109f:	00 
  4010a0:	64 48 33 04 25 28 00 	xor    %fs:0x28,%rax
  4010a7:	00 00 
  4010a9:	0f 85 e8 00 00 00    	jne    401197 <initialize_target+0x194>
  4010af:	48 81 c4 18 21 00 00 	add    $0x2118,%rsp
  4010b6:	5b                   	pop    %rbx
  4010b7:	5d                   	pop    %rbp
  4010b8:	c3                   	retq   
  4010b9:	bf 00 00 00 00       	mov    $0x0,%edi
  4010be:	e8 cd fc ff ff       	callq  400d90 <time@plt>
  4010c3:	89 c7                	mov    %eax,%edi
  4010c5:	e8 c6 fb ff ff       	callq  400c90 <srandom@plt>
  4010ca:	e8 d1 fc ff ff       	callq  400da0 <random@plt>
  4010cf:	eb 99                	jmp    40106a <initialize_target+0x67>
  4010d1:	48 89 e7             	mov    %rsp,%rdi
  4010d4:	be 00 01 00 00       	mov    $0x100,%esi
  4010d9:	e8 42 fd ff ff       	callq  400e20 <gethostname@plt>
  4010de:	89 c5                	mov    %eax,%ebp
  4010e0:	85 c0                	test   %eax,%eax
  4010e2:	75 34                	jne    401118 <initialize_target+0x115>
  4010e4:	c7 04 24 79 70 63 68 	movl   $0x68637079,(%rsp)
  4010eb:	66 c7 44 24 04 6f 00 	movw   $0x6f,0x4(%rsp)
  4010f2:	89 c3                	mov    %eax,%ebx
  4010f4:	48 63 c3             	movslq %ebx,%rax
  4010f7:	48 8d 15 62 40 20 00 	lea    0x204062(%rip),%rdx        # 605160 <host_table>
  4010fe:	48 8b 3c c2          	mov    (%rdx,%rax,8),%rdi
  401102:	48 85 ff             	test   %rdi,%rdi
  401105:	74 2c                	je     401133 <initialize_target+0x130>
  401107:	48 89 e6             	mov    %rsp,%rsi
  40110a:	e8 61 fb ff ff       	callq  400c70 <strcasecmp@plt>
  40110f:	85 c0                	test   %eax,%eax
  401111:	74 1b                	je     40112e <initialize_target+0x12b>
  401113:	83 c3 01             	add    $0x1,%ebx
  401116:	eb dc                	jmp    4010f4 <initialize_target+0xf1>
  401118:	48 8d 3d b9 1f 00 00 	lea    0x1fb9(%rip),%rdi        # 4030d8 <_IO_stdin_used+0xe8>
  40111f:	e8 9c fb ff ff       	callq  400cc0 <puts@plt>
  401124:	bf 08 00 00 00       	mov    $0x8,%edi
  401129:	e8 02 fd ff ff       	callq  400e30 <exit@plt>
  40112e:	bd 01 00 00 00       	mov    $0x1,%ebp
  401133:	85 ed                	test   %ebp,%ebp
  401135:	74 3d                	je     401174 <initialize_target+0x171>
  401137:	48 8d bc 24 00 01 00 	lea    0x100(%rsp),%rdi
  40113e:	00 
  40113f:	e8 2f 1b 00 00       	callq  402c73 <init_driver>
  401144:	85 c0                	test   %eax,%eax
  401146:	0f 89 4c ff ff ff    	jns    401098 <initialize_target+0x95>
  40114c:	48 8d 94 24 00 01 00 	lea    0x100(%rsp),%rdx
  401153:	00 
  401154:	48 8d 35 f5 1f 00 00 	lea    0x1ff5(%rip),%rsi        # 403150 <_IO_stdin_used+0x160>
  40115b:	bf 01 00 00 00       	mov    $0x1,%edi
  401160:	b8 00 00 00 00       	mov    $0x0,%eax
  401165:	e8 76 fc ff ff       	callq  400de0 <__printf_chk@plt>
  40116a:	bf 08 00 00 00       	mov    $0x8,%edi
  40116f:	e8 bc fc ff ff       	callq  400e30 <exit@plt>
  401174:	48 89 e2             	mov    %rsp,%rdx
  401177:	48 8d 35 92 1f 00 00 	lea    0x1f92(%rip),%rsi        # 403110 <_IO_stdin_used+0x120>
  40117e:	bf 01 00 00 00       	mov    $0x1,%edi
  401183:	b8 00 00 00 00       	mov    $0x0,%eax
  401188:	e8 53 fc ff ff       	callq  400de0 <__printf_chk@plt>
  40118d:	bf 08 00 00 00       	mov    $0x8,%edi
  401192:	e8 99 fc ff ff       	callq  400e30 <exit@plt>
  401197:	e8 44 fb ff ff       	callq  400ce0 <__stack_chk_fail@plt>

000000000040119c <main>:
  40119c:	41 56                	push   %r14
  40119e:	41 55                	push   %r13
  4011a0:	41 54                	push   %r12
  4011a2:	55                   	push   %rbp
  4011a3:	53                   	push   %rbx
  4011a4:	41 89 fc             	mov    %edi,%r12d
  4011a7:	48 89 f3             	mov    %rsi,%rbx
  4011aa:	48 c7 c6 7a 1f 40 00 	mov    $0x401f7a,%rsi
  4011b1:	bf 0b 00 00 00       	mov    $0xb,%edi
  4011b6:	e8 85 fb ff ff       	callq  400d40 <signal@plt>
  4011bb:	48 c7 c6 26 1f 40 00 	mov    $0x401f26,%rsi
  4011c2:	bf 07 00 00 00       	mov    $0x7,%edi
  4011c7:	e8 74 fb ff ff       	callq  400d40 <signal@plt>
  4011cc:	48 c7 c6 ce 1f 40 00 	mov    $0x401fce,%rsi
  4011d3:	bf 04 00 00 00       	mov    $0x4,%edi
  4011d8:	e8 63 fb ff ff       	callq  400d40 <signal@plt>
  4011dd:	83 3d 24 43 20 00 00 	cmpl   $0x0,0x204324(%rip)        # 605508 <is_checker>
  4011e4:	75 26                	jne    40120c <main+0x70>
  4011e6:	48 8d 2d 28 20 00 00 	lea    0x2028(%rip),%rbp        # 403215 <_IO_stdin_used+0x225>
  4011ed:	48 8b 05 ac 42 20 00 	mov    0x2042ac(%rip),%rax        # 6054a0 <stdin@@GLIBC_2.2.5>
  4011f4:	48 89 05 f5 42 20 00 	mov    %rax,0x2042f5(%rip)        # 6054f0 <infile>
  4011fb:	41 bd 00 00 00 00    	mov    $0x0,%r13d
  401201:	41 be 00 00 00 00    	mov    $0x0,%r14d
  401207:	e9 8d 00 00 00       	jmpq   401299 <main+0xfd>
  40120c:	48 c7 c6 22 20 40 00 	mov    $0x402022,%rsi
  401213:	bf 0e 00 00 00       	mov    $0xe,%edi
  401218:	e8 23 fb ff ff       	callq  400d40 <signal@plt>
  40121d:	bf 05 00 00 00       	mov    $0x5,%edi
  401222:	e8 e9 fa ff ff       	callq  400d10 <alarm@plt>
  401227:	48 8d 2d ec 1f 00 00 	lea    0x1fec(%rip),%rbp        # 40321a <_IO_stdin_used+0x22a>
  40122e:	eb bd                	jmp    4011ed <main+0x51>
  401230:	48 8b 3b             	mov    (%rbx),%rdi
  401233:	e8 2f fd ff ff       	callq  400f67 <usage>
  401238:	48 8d 35 4b 25 00 00 	lea    0x254b(%rip),%rsi        # 40378a <trans_char+0xda>
  40123f:	48 8b 3d 62 42 20 00 	mov    0x204262(%rip),%rdi        # 6054a8 <optarg@@GLIBC_2.2.5>
  401246:	e8 a5 fb ff ff       	callq  400df0 <fopen@plt>
  40124b:	48 89 05 9e 42 20 00 	mov    %rax,0x20429e(%rip)        # 6054f0 <infile>
  401252:	48 85 c0             	test   %rax,%rax
  401255:	75 42                	jne    401299 <main+0xfd>
  401257:	48 8b 0d 4a 42 20 00 	mov    0x20424a(%rip),%rcx        # 6054a8 <optarg@@GLIBC_2.2.5>
  40125e:	48 8d 15 bd 1f 00 00 	lea    0x1fbd(%rip),%rdx        # 403222 <_IO_stdin_used+0x232>
  401265:	be 01 00 00 00       	mov    $0x1,%esi
  40126a:	48 8b 3d 4f 42 20 00 	mov    0x20424f(%rip),%rdi        # 6054c0 <stderr@@GLIBC_2.2.5>
  401271:	e8 da fb ff ff       	callq  400e50 <__fprintf_chk@plt>
  401276:	b8 01 00 00 00       	mov    $0x1,%eax
  40127b:	e9 d9 00 00 00       	jmpq   401359 <main+0x1bd>
  401280:	ba 10 00 00 00       	mov    $0x10,%edx
  401285:	be 00 00 00 00       	mov    $0x0,%esi
  40128a:	48 8b 3d 17 42 20 00 	mov    0x204217(%rip),%rdi        # 6054a8 <optarg@@GLIBC_2.2.5>
  401291:	e8 7a fb ff ff       	callq  400e10 <strtoul@plt>
  401296:	41 89 c6             	mov    %eax,%r14d
  401299:	48 89 ea             	mov    %rbp,%rdx
  40129c:	48 89 de             	mov    %rbx,%rsi
  40129f:	44 89 e7             	mov    %r12d,%edi
  4012a2:	e8 59 fb ff ff       	callq  400e00 <getopt@plt>
  4012a7:	3c ff                	cmp    $0xff,%al
  4012a9:	74 62                	je     40130d <main+0x171>
  4012ab:	0f be d0             	movsbl %al,%edx
  4012ae:	83 e8 61             	sub    $0x61,%eax
  4012b1:	3c 10                	cmp    $0x10,%al
  4012b3:	77 3a                	ja     4012ef <main+0x153>
  4012b5:	0f b6 c0             	movzbl %al,%eax
  4012b8:	48 8d 0d a1 1f 00 00 	lea    0x1fa1(%rip),%rcx        # 403260 <_IO_stdin_used+0x270>
  4012bf:	48 63 04 81          	movslq (%rcx,%rax,4),%rax
  4012c3:	48 01 c8             	add    %rcx,%rax
  4012c6:	ff e0                	jmpq   *%rax
  4012c8:	ba 0a 00 00 00       	mov    $0xa,%edx
  4012cd:	be 00 00 00 00       	mov    $0x0,%esi
  4012d2:	48 8b 3d cf 41 20 00 	mov    0x2041cf(%rip),%rdi        # 6054a8 <optarg@@GLIBC_2.2.5>
  4012d9:	e8 92 fa ff ff       	callq  400d70 <strtol@plt>
  4012de:	41 89 c5             	mov    %eax,%r13d
  4012e1:	eb b6                	jmp    401299 <main+0xfd>
  4012e3:	c7 05 9b 41 20 00 00 	movl   $0x0,0x20419b(%rip)        # 605488 <notify>
  4012ea:	00 00 00 
  4012ed:	eb aa                	jmp    401299 <main+0xfd>
  4012ef:	48 8d 35 49 1f 00 00 	lea    0x1f49(%rip),%rsi        # 40323f <_IO_stdin_used+0x24f>
  4012f6:	bf 01 00 00 00       	mov    $0x1,%edi
  4012fb:	b8 00 00 00 00       	mov    $0x0,%eax
  401300:	e8 db fa ff ff       	callq  400de0 <__printf_chk@plt>
  401305:	48 8b 3b             	mov    (%rbx),%rdi
  401308:	e8 5a fc ff ff       	callq  400f67 <usage>
  40130d:	be 00 00 00 00       	mov    $0x0,%esi
  401312:	44 89 ef             	mov    %r13d,%edi
  401315:	e8 e9 fc ff ff       	callq  401003 <initialize_target>
  40131a:	83 3d e7 41 20 00 00 	cmpl   $0x0,0x2041e7(%rip)        # 605508 <is_checker>
  401321:	74 09                	je     40132c <main+0x190>
  401323:	44 39 35 d6 41 20 00 	cmp    %r14d,0x2041d6(%rip)        # 605500 <authkey>
  40132a:	75 36                	jne    401362 <main+0x1c6>
  40132c:	8b 15 d2 41 20 00    	mov    0x2041d2(%rip),%edx        # 605504 <cookie>
  401332:	48 8d 35 19 1f 00 00 	lea    0x1f19(%rip),%rsi        # 403252 <_IO_stdin_used+0x262>
  401339:	bf 01 00 00 00       	mov    $0x1,%edi
  40133e:	b8 00 00 00 00       	mov    $0x0,%eax
  401343:	e8 98 fa ff ff       	callq  400de0 <__printf_chk@plt>
  401348:	48 8b 3d 31 41 20 00 	mov    0x204131(%rip),%rdi        # 605480 <buf_offset>
  40134f:	e8 da 0d 00 00       	callq  40212e <stable_launch>
  401354:	b8 00 00 00 00       	mov    $0x0,%eax
  401359:	5b                   	pop    %rbx
  40135a:	5d                   	pop    %rbp
  40135b:	41 5c                	pop    %r12
  40135d:	41 5d                	pop    %r13
  40135f:	41 5e                	pop    %r14
  401361:	c3                   	retq   
  401362:	44 89 f2             	mov    %r14d,%edx
  401365:	48 8d 35 0c 1e 00 00 	lea    0x1e0c(%rip),%rsi        # 403178 <_IO_stdin_used+0x188>
  40136c:	bf 01 00 00 00       	mov    $0x1,%edi
  401371:	b8 00 00 00 00       	mov    $0x0,%eax
  401376:	e8 65 fa ff ff       	callq  400de0 <__printf_chk@plt>
  40137b:	b8 00 00 00 00       	mov    $0x0,%eax
  401380:	e8 01 08 00 00       	callq  401b86 <check_fail>
  401385:	eb a5                	jmp    40132c <main+0x190>

0000000000401387 <scramble>:
  401387:	48 83 ec 38          	sub    $0x38,%rsp
  40138b:	64 48 8b 04 25 28 00 	mov    %fs:0x28,%rax
  401392:	00 00 
  401394:	48 89 44 24 28       	mov    %rax,0x28(%rsp)
  401399:	31 c0                	xor    %eax,%eax
  40139b:	eb 10                	jmp    4013ad <scramble+0x26>
  40139d:	69 d0 dd a7 00 00    	imul   $0xa7dd,%eax,%edx
  4013a3:	01 fa                	add    %edi,%edx
  4013a5:	89 c1                	mov    %eax,%ecx
  4013a7:	89 14 8c             	mov    %edx,(%rsp,%rcx,4)
  4013aa:	83 c0 01             	add    $0x1,%eax
  4013ad:	83 f8 09             	cmp    $0x9,%eax
  4013b0:	76 eb                	jbe    40139d <scramble+0x16>
  4013b2:	8b 44 24 08          	mov    0x8(%rsp),%eax
  4013b6:	69 c0 6a 9a 00 00    	imul   $0x9a6a,%eax,%eax
  4013bc:	89 44 24 08          	mov    %eax,0x8(%rsp)
  4013c0:	8b 44 24 08          	mov    0x8(%rsp),%eax
  4013c4:	69 c0 6c 77 00 00    	imul   $0x776c,%eax,%eax
  4013ca:	89 44 24 08          	mov    %eax,0x8(%rsp)
  4013ce:	8b 44 24 24          	mov    0x24(%rsp),%eax
  4013d2:	69 c0 30 9a 00 00    	imul   $0x9a30,%eax,%eax
  4013d8:	89 44 24 24          	mov    %eax,0x24(%rsp)
  4013dc:	8b 44 24 04          	mov    0x4(%rsp),%eax
  4013e0:	69 c0 c1 95 00 00    	imul   $0x95c1,%eax,%eax
  4013e6:	89 44 24 04          	mov    %eax,0x4(%rsp)
  4013ea:	8b 44 24 20          	mov    0x20(%rsp),%eax
  4013ee:	69 c0 62 a0 00 00    	imul   $0xa062,%eax,%eax
  4013f4:	89 44 24 20          	mov    %eax,0x20(%rsp)
  4013f8:	8b 44 24 20          	mov    0x20(%rsp),%eax
  4013fc:	69 c0 04 73 00 00    	imul   $0x7304,%eax,%eax
  401402:	89 44 24 20          	mov    %eax,0x20(%rsp)
  401406:	8b 04 24             	mov    (%rsp),%eax
  401409:	69 c0 1a b6 00 00    	imul   $0xb61a,%eax,%eax
  40140f:	89 04 24             	mov    %eax,(%rsp)
  401412:	8b 44 24 18          	mov    0x18(%rsp),%eax
  401416:	69 c0 1c 86 00 00    	imul   $0x861c,%eax,%eax
  40141c:	89 44 24 18          	mov    %eax,0x18(%rsp)
  401420:	8b 44 24 18          	mov    0x18(%rsp),%eax
  401424:	69 c0 24 66 00 00    	imul   $0x6624,%eax,%eax
  40142a:	89 44 24 18          	mov    %eax,0x18(%rsp)
  40142e:	8b 44 24 14          	mov    0x14(%rsp),%eax
  401432:	69 c0 ce cd 00 00    	imul   $0xcdce,%eax,%eax
  401438:	89 44 24 14          	mov    %eax,0x14(%rsp)
  40143c:	8b 44 24 0c          	mov    0xc(%rsp),%eax
  401440:	69 c0 cf d6 00 00    	imul   $0xd6cf,%eax,%eax
  401446:	89 44 24 0c          	mov    %eax,0xc(%rsp)
  40144a:	8b 04 24             	mov    (%rsp),%eax
  40144d:	69 c0 63 f1 00 00    	imul   $0xf163,%eax,%eax
  401453:	89 04 24             	mov    %eax,(%rsp)
  401456:	8b 44 24 0c          	mov    0xc(%rsp),%eax
  40145a:	69 c0 4f f1 00 00    	imul   $0xf14f,%eax,%eax
  401460:	89 44 24 0c          	mov    %eax,0xc(%rsp)
  401464:	8b 44 24 1c          	mov    0x1c(%rsp),%eax
  401468:	69 c0 14 dc 00 00    	imul   $0xdc14,%eax,%eax
  40146e:	89 44 24 1c          	mov    %eax,0x1c(%rsp)
  401472:	8b 44 24 1c          	mov    0x1c(%rsp),%eax
  401476:	69 c0 62 6a 00 00    	imul   $0x6a62,%eax,%eax
  40147c:	89 44 24 1c          	mov    %eax,0x1c(%rsp)
  401480:	8b 44 24 20          	mov    0x20(%rsp),%eax
  401484:	69 c0 0c d5 00 00    	imul   $0xd50c,%eax,%eax
  40148a:	89 44 24 20          	mov    %eax,0x20(%rsp)
  40148e:	8b 44 24 04          	mov    0x4(%rsp),%eax
  401492:	69 c0 37 29 00 00    	imul   $0x2937,%eax,%eax
  401498:	89 44 24 04          	mov    %eax,0x4(%rsp)
  40149c:	8b 44 24 04          	mov    0x4(%rsp),%eax
  4014a0:	69 c0 bc d0 00 00    	imul   $0xd0bc,%eax,%eax
  4014a6:	89 44 24 04          	mov    %eax,0x4(%rsp)
  4014aa:	8b 44 24 14          	mov    0x14(%rsp),%eax
  4014ae:	69 c0 12 49 00 00    	imul   $0x4912,%eax,%eax
  4014b4:	89 44 24 14          	mov    %eax,0x14(%rsp)
  4014b8:	8b 44 24 1c          	mov    0x1c(%rsp),%eax
  4014bc:	69 c0 95 6a 00 00    	imul   $0x6a95,%eax,%eax
  4014c2:	89 44 24 1c          	mov    %eax,0x1c(%rsp)
  4014c6:	8b 44 24 14          	mov    0x14(%rsp),%eax
  4014ca:	69 c0 7d 23 00 00    	imul   $0x237d,%eax,%eax
  4014d0:	89 44 24 14          	mov    %eax,0x14(%rsp)
  4014d4:	8b 44 24 0c          	mov    0xc(%rsp),%eax
  4014d8:	69 c0 13 c1 00 00    	imul   $0xc113,%eax,%eax
  4014de:	89 44 24 0c          	mov    %eax,0xc(%rsp)
  4014e2:	8b 44 24 1c          	mov    0x1c(%rsp),%eax
  4014e6:	69 c0 7d f6 00 00    	imul   $0xf67d,%eax,%eax
  4014ec:	89 44 24 1c          	mov    %eax,0x1c(%rsp)
  4014f0:	8b 44 24 14          	mov    0x14(%rsp),%eax
  4014f4:	69 c0 71 bc 00 00    	imul   $0xbc71,%eax,%eax
  4014fa:	89 44 24 14          	mov    %eax,0x14(%rsp)
  4014fe:	8b 44 24 14          	mov    0x14(%rsp),%eax
  401502:	69 c0 9d d8 00 00    	imul   $0xd89d,%eax,%eax
  401508:	89 44 24 14          	mov    %eax,0x14(%rsp)
  40150c:	8b 44 24 0c          	mov    0xc(%rsp),%eax
  401510:	69 c0 ce 3e 00 00    	imul   $0x3ece,%eax,%eax
  401516:	89 44 24 0c          	mov    %eax,0xc(%rsp)
  40151a:	8b 44 24 0c          	mov    0xc(%rsp),%eax
  40151e:	69 c0 f4 3a 00 00    	imul   $0x3af4,%eax,%eax
  401524:	89 44 24 0c          	mov    %eax,0xc(%rsp)
  401528:	8b 44 24 0c          	mov    0xc(%rsp),%eax
  40152c:	69 c0 d9 82 00 00    	imul   $0x82d9,%eax,%eax
  401532:	89 44 24 0c          	mov    %eax,0xc(%rsp)
  401536:	8b 44 24 24          	mov    0x24(%rsp),%eax
  40153a:	69 c0 ab c7 00 00    	imul   $0xc7ab,%eax,%eax
  401540:	89 44 24 24          	mov    %eax,0x24(%rsp)
  401544:	8b 44 24 0c          	mov    0xc(%rsp),%eax
  401548:	69 c0 72 59 00 00    	imul   $0x5972,%eax,%eax
  40154e:	89 44 24 0c          	mov    %eax,0xc(%rsp)
  401552:	8b 44 24 1c          	mov    0x1c(%rsp),%eax
  401556:	69 c0 1c 18 00 00    	imul   $0x181c,%eax,%eax
  40155c:	89 44 24 1c          	mov    %eax,0x1c(%rsp)
  401560:	8b 44 24 20          	mov    0x20(%rsp),%eax
  401564:	69 c0 d9 36 00 00    	imul   $0x36d9,%eax,%eax
  40156a:	89 44 24 20          	mov    %eax,0x20(%rsp)
  40156e:	8b 44 24 0c          	mov    0xc(%rsp),%eax
  401572:	69 c0 f8 7a 00 00    	imul   $0x7af8,%eax,%eax
  401578:	89 44 24 0c          	mov    %eax,0xc(%rsp)
  40157c:	8b 04 24             	mov    (%rsp),%eax
  40157f:	69 c0 bb 04 00 00    	imul   $0x4bb,%eax,%eax
  401585:	89 04 24             	mov    %eax,(%rsp)
  401588:	8b 44 24 10          	mov    0x10(%rsp),%eax
  40158c:	69 c0 12 6e 00 00    	imul   $0x6e12,%eax,%eax
  401592:	89 44 24 10          	mov    %eax,0x10(%rsp)
  401596:	8b 44 24 0c          	mov    0xc(%rsp),%eax
  40159a:	69 c0 7f ad 00 00    	imul   $0xad7f,%eax,%eax
  4015a0:	89 44 24 0c          	mov    %eax,0xc(%rsp)
  4015a4:	8b 44 24 10          	mov    0x10(%rsp),%eax
  4015a8:	69 c0 e9 4c 00 00    	imul   $0x4ce9,%eax,%eax
  4015ae:	89 44 24 10          	mov    %eax,0x10(%rsp)
  4015b2:	8b 44 24 20          	mov    0x20(%rsp),%eax
  4015b6:	69 c0 26 6b 00 00    	imul   $0x6b26,%eax,%eax
  4015bc:	89 44 24 20          	mov    %eax,0x20(%rsp)
  4015c0:	8b 44 24 24          	mov    0x24(%rsp),%eax
  4015c4:	69 c0 c1 b5 00 00    	imul   $0xb5c1,%eax,%eax
  4015ca:	89 44 24 24          	mov    %eax,0x24(%rsp)
  4015ce:	8b 44 24 1c          	mov    0x1c(%rsp),%eax
  4015d2:	69 c0 07 a0 00 00    	imul   $0xa007,%eax,%eax
  4015d8:	89 44 24 1c          	mov    %eax,0x1c(%rsp)
  4015dc:	8b 44 24 18          	mov    0x18(%rsp),%eax
  4015e0:	69 c0 d6 b1 00 00    	imul   $0xb1d6,%eax,%eax
  4015e6:	89 44 24 18          	mov    %eax,0x18(%rsp)
  4015ea:	8b 44 24 10          	mov    0x10(%rsp),%eax
  4015ee:	69 c0 cc 3d 00 00    	imul   $0x3dcc,%eax,%eax
  4015f4:	89 44 24 10          	mov    %eax,0x10(%rsp)
  4015f8:	8b 44 24 24          	mov    0x24(%rsp),%eax
  4015fc:	69 c0 07 0f 00 00    	imul   $0xf07,%eax,%eax
  401602:	89 44 24 24          	mov    %eax,0x24(%rsp)
  401606:	8b 44 24 20          	mov    0x20(%rsp),%eax
  40160a:	69 c0 0e 19 00 00    	imul   $0x190e,%eax,%eax
  401610:	89 44 24 20          	mov    %eax,0x20(%rsp)
  401614:	8b 44 24 08          	mov    0x8(%rsp),%eax
  401618:	69 c0 92 1f 00 00    	imul   $0x1f92,%eax,%eax
  40161e:	89 44 24 08          	mov    %eax,0x8(%rsp)
  401622:	8b 44 24 18          	mov    0x18(%rsp),%eax
  401626:	69 c0 bf 08 00 00    	imul   $0x8bf,%eax,%eax
  40162c:	89 44 24 18          	mov    %eax,0x18(%rsp)
  401630:	8b 44 24 18          	mov    0x18(%rsp),%eax
  401634:	69 c0 ff a0 00 00    	imul   $0xa0ff,%eax,%eax
  40163a:	89 44 24 18          	mov    %eax,0x18(%rsp)
  40163e:	8b 44 24 24          	mov    0x24(%rsp),%eax
  401642:	69 c0 02 79 00 00    	imul   $0x7902,%eax,%eax
  401648:	89 44 24 24          	mov    %eax,0x24(%rsp)
  40164c:	8b 44 24 18          	mov    0x18(%rsp),%eax
  401650:	69 c0 2d 47 00 00    	imul   $0x472d,%eax,%eax
  401656:	89 44 24 18          	mov    %eax,0x18(%rsp)
  40165a:	8b 44 24 04          	mov    0x4(%rsp),%eax
  40165e:	69 c0 02 e0 00 00    	imul   $0xe002,%eax,%eax
  401664:	89 44 24 04          	mov    %eax,0x4(%rsp)
  401668:	8b 44 24 24          	mov    0x24(%rsp),%eax
  40166c:	69 c0 0e ed 00 00    	imul   $0xed0e,%eax,%eax
  401672:	89 44 24 24          	mov    %eax,0x24(%rsp)
  401676:	8b 44 24 08          	mov    0x8(%rsp),%eax
  40167a:	69 c0 ce 46 00 00    	imul   $0x46ce,%eax,%eax
  401680:	89 44 24 08          	mov    %eax,0x8(%rsp)
  401684:	8b 44 24 10          	mov    0x10(%rsp),%eax
  401688:	69 c0 14 fc 00 00    	imul   $0xfc14,%eax,%eax
  40168e:	89 44 24 10          	mov    %eax,0x10(%rsp)
  401692:	8b 44 24 24          	mov    0x24(%rsp),%eax
  401696:	69 c0 5e 7d 00 00    	imul   $0x7d5e,%eax,%eax
  40169c:	89 44 24 24          	mov    %eax,0x24(%rsp)
  4016a0:	8b 44 24 20          	mov    0x20(%rsp),%eax
  4016a4:	69 c0 8b d9 00 00    	imul   $0xd98b,%eax,%eax
  4016aa:	89 44 24 20          	mov    %eax,0x20(%rsp)
  4016ae:	8b 44 24 1c          	mov    0x1c(%rsp),%eax
  4016b2:	69 c0 34 40 00 00    	imul   $0x4034,%eax,%eax
  4016b8:	89 44 24 1c          	mov    %eax,0x1c(%rsp)
  4016bc:	8b 04 24             	mov    (%rsp),%eax
  4016bf:	69 c0 3c fc 00 00    	imul   $0xfc3c,%eax,%eax
  4016c5:	89 04 24             	mov    %eax,(%rsp)
  4016c8:	8b 44 24 1c          	mov    0x1c(%rsp),%eax
  4016cc:	69 c0 2c 78 00 00    	imul   $0x782c,%eax,%eax
  4016d2:	89 44 24 1c          	mov    %eax,0x1c(%rsp)
  4016d6:	8b 44 24 08          	mov    0x8(%rsp),%eax
  4016da:	69 c0 a5 3e 00 00    	imul   $0x3ea5,%eax,%eax
  4016e0:	89 44 24 08          	mov    %eax,0x8(%rsp)
  4016e4:	8b 44 24 1c          	mov    0x1c(%rsp),%eax
  4016e8:	69 c0 f6 e1 00 00    	imul   $0xe1f6,%eax,%eax
  4016ee:	89 44 24 1c          	mov    %eax,0x1c(%rsp)
  4016f2:	8b 44 24 04          	mov    0x4(%rsp),%eax
  4016f6:	69 c0 ba 03 00 00    	imul   $0x3ba,%eax,%eax
  4016fc:	89 44 24 04          	mov    %eax,0x4(%rsp)
  401700:	8b 44 24 18          	mov    0x18(%rsp),%eax
  401704:	69 c0 e6 95 00 00    	imul   $0x95e6,%eax,%eax
  40170a:	89 44 24 18          	mov    %eax,0x18(%rsp)
  40170e:	8b 04 24             	mov    (%rsp),%eax
  401711:	69 c0 4e 2a 00 00    	imul   $0x2a4e,%eax,%eax
  401717:	89 04 24             	mov    %eax,(%rsp)
  40171a:	8b 44 24 04          	mov    0x4(%rsp),%eax
  40171e:	69 c0 b1 c0 00 00    	imul   $0xc0b1,%eax,%eax
  401724:	89 44 24 04          	mov    %eax,0x4(%rsp)
  401728:	8b 44 24 1c          	mov    0x1c(%rsp),%eax
  40172c:	69 c0 a6 8c 00 00    	imul   $0x8ca6,%eax,%eax
  401732:	89 44 24 1c          	mov    %eax,0x1c(%rsp)
  401736:	8b 44 24 1c          	mov    0x1c(%rsp),%eax
  40173a:	69 c0 bb 26 00 00    	imul   $0x26bb,%eax,%eax
  401740:	89 44 24 1c          	mov    %eax,0x1c(%rsp)
  401744:	8b 44 24 04          	mov    0x4(%rsp),%eax
  401748:	69 c0 35 2e 00 00    	imul   $0x2e35,%eax,%eax
  40174e:	89 44 24 04          	mov    %eax,0x4(%rsp)
  401752:	8b 44 24 14          	mov    0x14(%rsp),%eax
  401756:	69 c0 ad b3 00 00    	imul   $0xb3ad,%eax,%eax
  40175c:	89 44 24 14          	mov    %eax,0x14(%rsp)
  401760:	8b 44 24 0c          	mov    0xc(%rsp),%eax
  401764:	69 c0 7e 1f 00 00    	imul   $0x1f7e,%eax,%eax
  40176a:	89 44 24 0c          	mov    %eax,0xc(%rsp)
  40176e:	8b 44 24 04          	mov    0x4(%rsp),%eax
  401772:	69 c0 1e dc 00 00    	imul   $0xdc1e,%eax,%eax
  401778:	89 44 24 04          	mov    %eax,0x4(%rsp)
  40177c:	8b 44 24 0c          	mov    0xc(%rsp),%eax
  401780:	69 c0 71 4e 00 00    	imul   $0x4e71,%eax,%eax
  401786:	89 44 24 0c          	mov    %eax,0xc(%rsp)
  40178a:	8b 44 24 1c          	mov    0x1c(%rsp),%eax
  40178e:	69 c0 6b 84 00 00    	imul   $0x846b,%eax,%eax
  401794:	89 44 24 1c          	mov    %eax,0x1c(%rsp)
  401798:	8b 44 24 14          	mov    0x14(%rsp),%eax
  40179c:	69 c0 53 9a 00 00    	imul   $0x9a53,%eax,%eax
  4017a2:	89 44 24 14          	mov    %eax,0x14(%rsp)
  4017a6:	8b 44 24 14          	mov    0x14(%rsp),%eax
  4017aa:	69 c0 f1 55 00 00    	imul   $0x55f1,%eax,%eax
  4017b0:	89 44 24 14          	mov    %eax,0x14(%rsp)
  4017b4:	8b 44 24 0c          	mov    0xc(%rsp),%eax
  4017b8:	69 c0 d1 8d 00 00    	imul   $0x8dd1,%eax,%eax
  4017be:	89 44 24 0c          	mov    %eax,0xc(%rsp)
  4017c2:	8b 44 24 0c          	mov    0xc(%rsp),%eax
  4017c6:	69 c0 30 37 00 00    	imul   $0x3730,%eax,%eax
  4017cc:	89 44 24 0c          	mov    %eax,0xc(%rsp)
  4017d0:	8b 04 24             	mov    (%rsp),%eax
  4017d3:	69 c0 9c 22 00 00    	imul   $0x229c,%eax,%eax
  4017d9:	89 04 24             	mov    %eax,(%rsp)
  4017dc:	8b 44 24 10          	mov    0x10(%rsp),%eax
  4017e0:	69 c0 45 36 00 00    	imul   $0x3645,%eax,%eax
  4017e6:	89 44 24 10          	mov    %eax,0x10(%rsp)
  4017ea:	8b 44 24 14          	mov    0x14(%rsp),%eax
  4017ee:	69 c0 ff db 00 00    	imul   $0xdbff,%eax,%eax
  4017f4:	89 44 24 14          	mov    %eax,0x14(%rsp)
  4017f8:	8b 44 24 1c          	mov    0x1c(%rsp),%eax
  4017fc:	69 c0 66 be 00 00    	imul   $0xbe66,%eax,%eax
  401802:	89 44 24 1c          	mov    %eax,0x1c(%rsp)
  401806:	8b 44 24 14          	mov    0x14(%rsp),%eax
  40180a:	69 c0 aa 97 00 00    	imul   $0x97aa,%eax,%eax
  401810:	89 44 24 14          	mov    %eax,0x14(%rsp)
  401814:	8b 44 24 0c          	mov    0xc(%rsp),%eax
  401818:	69 c0 5a e2 00 00    	imul   $0xe25a,%eax,%eax
  40181e:	89 44 24 0c          	mov    %eax,0xc(%rsp)
  401822:	8b 44 24 24          	mov    0x24(%rsp),%eax
  401826:	69 c0 aa 52 00 00    	imul   $0x52aa,%eax,%eax
  40182c:	89 44 24 24          	mov    %eax,0x24(%rsp)
  401830:	8b 44 24 18          	mov    0x18(%rsp),%eax
  401834:	69 c0 28 f0 00 00    	imul   $0xf028,%eax,%eax
  40183a:	89 44 24 18          	mov    %eax,0x18(%rsp)
  40183e:	8b 44 24 14          	mov    0x14(%rsp),%eax
  401842:	69 c0 13 c7 00 00    	imul   $0xc713,%eax,%eax
  401848:	89 44 24 14          	mov    %eax,0x14(%rsp)
  40184c:	8b 44 24 18          	mov    0x18(%rsp),%eax
  401850:	69 c0 32 6b 00 00    	imul   $0x6b32,%eax,%eax
  401856:	89 44 24 18          	mov    %eax,0x18(%rsp)
  40185a:	8b 44 24 04          	mov    0x4(%rsp),%eax
  40185e:	69 c0 9a e8 00 00    	imul   $0xe89a,%eax,%eax
  401864:	89 44 24 04          	mov    %eax,0x4(%rsp)
  401868:	8b 44 24 14          	mov    0x14(%rsp),%eax
  40186c:	69 c0 32 60 00 00    	imul   $0x6032,%eax,%eax
  401872:	89 44 24 14          	mov    %eax,0x14(%rsp)
  401876:	8b 44 24 04          	mov    0x4(%rsp),%eax
  40187a:	69 c0 34 ec 00 00    	imul   $0xec34,%eax,%eax
  401880:	89 44 24 04          	mov    %eax,0x4(%rsp)
  401884:	8b 44 24 14          	mov    0x14(%rsp),%eax
  401888:	69 c0 e6 5b 00 00    	imul   $0x5be6,%eax,%eax
  40188e:	89 44 24 14          	mov    %eax,0x14(%rsp)
  401892:	8b 44 24 1c          	mov    0x1c(%rsp),%eax
  401896:	69 c0 0a ee 00 00    	imul   $0xee0a,%eax,%eax
  40189c:	89 44 24 1c          	mov    %eax,0x1c(%rsp)
  4018a0:	8b 04 24             	mov    (%rsp),%eax
  4018a3:	69 c0 90 0b 00 00    	imul   $0xb90,%eax,%eax
  4018a9:	89 04 24             	mov    %eax,(%rsp)
  4018ac:	8b 04 24             	mov    (%rsp),%eax
  4018af:	69 c0 2d 60 00 00    	imul   $0x602d,%eax,%eax
  4018b5:	89 04 24             	mov    %eax,(%rsp)
  4018b8:	8b 44 24 20          	mov    0x20(%rsp),%eax
  4018bc:	69 c0 91 5d 00 00    	imul   $0x5d91,%eax,%eax
  4018c2:	89 44 24 20          	mov    %eax,0x20(%rsp)
  4018c6:	8b 44 24 14          	mov    0x14(%rsp),%eax
  4018ca:	69 c0 cd 38 00 00    	imul   $0x38cd,%eax,%eax
  4018d0:	89 44 24 14          	mov    %eax,0x14(%rsp)
  4018d4:	8b 44 24 04          	mov    0x4(%rsp),%eax
  4018d8:	69 c0 d2 a4 00 00    	imul   $0xa4d2,%eax,%eax
  4018de:	89 44 24 04          	mov    %eax,0x4(%rsp)
  4018e2:	ba 00 00 00 00       	mov    $0x0,%edx
  4018e7:	b8 00 00 00 00       	mov    $0x0,%eax
  4018ec:	eb 0a                	jmp    4018f8 <scramble+0x571>
  4018ee:	89 d1                	mov    %edx,%ecx
  4018f0:	8b 0c 8c             	mov    (%rsp,%rcx,4),%ecx
  4018f3:	01 c8                	add    %ecx,%eax
  4018f5:	83 c2 01             	add    $0x1,%edx
  4018f8:	83 fa 09             	cmp    $0x9,%edx
  4018fb:	76 f1                	jbe    4018ee <scramble+0x567>
  4018fd:	48 8b 74 24 28       	mov    0x28(%rsp),%rsi
  401902:	64 48 33 34 25 28 00 	xor    %fs:0x28,%rsi
  401909:	00 00 
  40190b:	75 05                	jne    401912 <scramble+0x58b>
  40190d:	48 83 c4 38          	add    $0x38,%rsp
  401911:	c3                   	retq   
  401912:	e8 c9 f3 ff ff       	callq  400ce0 <__stack_chk_fail@plt>

0000000000401917 <getbuf>:
  401917:	48 83 ec 28          	sub    $0x28,%rsp
  40191b:	48 89 e7             	mov    %rsp,%rdi
  40191e:	e8 9b 02 00 00       	callq  401bbe <Gets>
  401923:	b8 01 00 00 00       	mov    $0x1,%eax
  401928:	48 83 c4 28          	add    $0x28,%rsp
  40192c:	c3                   	retq   

000000000040192d <touch1>:
  40192d:	48 83 ec 08          	sub    $0x8,%rsp
  401931:	c7 05 c1 3b 20 00 01 	movl   $0x1,0x203bc1(%rip)        # 6054fc <vlevel>
  401938:	00 00 00 
  40193b:	48 8d 3d 85 19 00 00 	lea    0x1985(%rip),%rdi        # 4032c7 <_IO_stdin_used+0x2d7>
  401942:	e8 79 f3 ff ff       	callq  400cc0 <puts@plt>
  401947:	bf 01 00 00 00       	mov    $0x1,%edi
  40194c:	e8 dd 04 00 00       	callq  401e2e <validate>
  401951:	bf 00 00 00 00       	mov    $0x0,%edi
  401956:	e8 d5 f4 ff ff       	callq  400e30 <exit@plt>

000000000040195b <touch2>:
  40195b:	48 83 ec 08          	sub    $0x8,%rsp
  40195f:	89 fa                	mov    %edi,%edx
  401961:	c7 05 91 3b 20 00 02 	movl   $0x2,0x203b91(%rip)        # 6054fc <vlevel>
  401968:	00 00 00 
  40196b:	39 3d 93 3b 20 00    	cmp    %edi,0x203b93(%rip)        # 605504 <cookie>
  401971:	74 2a                	je     40199d <touch2+0x42>
  401973:	48 8d 35 9e 19 00 00 	lea    0x199e(%rip),%rsi        # 403318 <_IO_stdin_used+0x328>
  40197a:	bf 01 00 00 00       	mov    $0x1,%edi
  40197f:	b8 00 00 00 00       	mov    $0x0,%eax
  401984:	e8 57 f4 ff ff       	callq  400de0 <__printf_chk@plt>
  401989:	bf 02 00 00 00       	mov    $0x2,%edi
  40198e:	e8 6b 05 00 00       	callq  401efe <fail>
  401993:	bf 00 00 00 00       	mov    $0x0,%edi
  401998:	e8 93 f4 ff ff       	callq  400e30 <exit@plt>
  40199d:	48 8d 35 4c 19 00 00 	lea    0x194c(%rip),%rsi        # 4032f0 <_IO_stdin_used+0x300>
  4019a4:	bf 01 00 00 00       	mov    $0x1,%edi
  4019a9:	b8 00 00 00 00       	mov    $0x0,%eax
  4019ae:	e8 2d f4 ff ff       	callq  400de0 <__printf_chk@plt>
  4019b3:	bf 02 00 00 00       	mov    $0x2,%edi
  4019b8:	e8 71 04 00 00       	callq  401e2e <validate>
  4019bd:	eb d4                	jmp    401993 <touch2+0x38>

00000000004019bf <hexmatch>:
  4019bf:	41 54                	push   %r12
  4019c1:	55                   	push   %rbp
  4019c2:	53                   	push   %rbx
  4019c3:	48 83 c4 80          	add    $0xffffffffffffff80,%rsp
  4019c7:	89 fd                	mov    %edi,%ebp
  4019c9:	48 89 f3             	mov    %rsi,%rbx
  4019cc:	64 48 8b 04 25 28 00 	mov    %fs:0x28,%rax
  4019d3:	00 00 
  4019d5:	48 89 44 24 78       	mov    %rax,0x78(%rsp)
  4019da:	31 c0                	xor    %eax,%eax
  4019dc:	e8 bf f3 ff ff       	callq  400da0 <random@plt>
  4019e1:	48 89 c1             	mov    %rax,%rcx
  4019e4:	48 ba 0b d7 a3 70 3d 	movabs $0xa3d70a3d70a3d70b,%rdx
  4019eb:	0a d7 a3 
  4019ee:	48 f7 ea             	imul   %rdx
  4019f1:	48 01 ca             	add    %rcx,%rdx
  4019f4:	48 c1 fa 06          	sar    $0x6,%rdx
  4019f8:	48 89 c8             	mov    %rcx,%rax
  4019fb:	48 c1 f8 3f          	sar    $0x3f,%rax
  4019ff:	48 29 c2             	sub    %rax,%rdx
  401a02:	48 8d 04 92          	lea    (%rdx,%rdx,4),%rax
  401a06:	48 8d 14 80          	lea    (%rax,%rax,4),%rdx
  401a0a:	48 8d 04 95 00 00 00 	lea    0x0(,%rdx,4),%rax
  401a11:	00 
  401a12:	48 29 c1             	sub    %rax,%rcx
  401a15:	4c 8d 24 0c          	lea    (%rsp,%rcx,1),%r12
  401a19:	41 89 e8             	mov    %ebp,%r8d
  401a1c:	48 8d 0d c1 18 00 00 	lea    0x18c1(%rip),%rcx        # 4032e4 <_IO_stdin_used+0x2f4>
  401a23:	48 c7 c2 ff ff ff ff 	mov    $0xffffffffffffffff,%rdx
  401a2a:	be 01 00 00 00       	mov    $0x1,%esi
  401a2f:	4c 89 e7             	mov    %r12,%rdi
  401a32:	b8 00 00 00 00       	mov    $0x0,%eax
  401a37:	e8 24 f4 ff ff       	callq  400e60 <__sprintf_chk@plt>
  401a3c:	ba 09 00 00 00       	mov    $0x9,%edx
  401a41:	4c 89 e6             	mov    %r12,%rsi
  401a44:	48 89 df             	mov    %rbx,%rdi
  401a47:	e8 54 f2 ff ff       	callq  400ca0 <strncmp@plt>
  401a4c:	85 c0                	test   %eax,%eax
  401a4e:	0f 94 c0             	sete   %al
  401a51:	48 8b 5c 24 78       	mov    0x78(%rsp),%rbx
  401a56:	64 48 33 1c 25 28 00 	xor    %fs:0x28,%rbx
  401a5d:	00 00 
  401a5f:	75 0c                	jne    401a6d <hexmatch+0xae>
  401a61:	0f b6 c0             	movzbl %al,%eax
  401a64:	48 83 ec 80          	sub    $0xffffffffffffff80,%rsp
  401a68:	5b                   	pop    %rbx
  401a69:	5d                   	pop    %rbp
  401a6a:	41 5c                	pop    %r12
  401a6c:	c3                   	retq   
  401a6d:	e8 6e f2 ff ff       	callq  400ce0 <__stack_chk_fail@plt>

0000000000401a72 <touch3>:
  401a72:	53                   	push   %rbx
  401a73:	48 89 fb             	mov    %rdi,%rbx
  401a76:	c7 05 7c 3a 20 00 03 	movl   $0x3,0x203a7c(%rip)        # 6054fc <vlevel>
  401a7d:	00 00 00 
  401a80:	48 89 fe             	mov    %rdi,%rsi
  401a83:	8b 3d 7b 3a 20 00    	mov    0x203a7b(%rip),%edi        # 605504 <cookie>
  401a89:	e8 31 ff ff ff       	callq  4019bf <hexmatch>
  401a8e:	85 c0                	test   %eax,%eax
  401a90:	74 2d                	je     401abf <touch3+0x4d>
  401a92:	48 89 da             	mov    %rbx,%rdx
  401a95:	48 8d 35 a4 18 00 00 	lea    0x18a4(%rip),%rsi        # 403340 <_IO_stdin_used+0x350>
  401a9c:	bf 01 00 00 00       	mov    $0x1,%edi
  401aa1:	b8 00 00 00 00       	mov    $0x0,%eax
  401aa6:	e8 35 f3 ff ff       	callq  400de0 <__printf_chk@plt>
  401aab:	bf 03 00 00 00       	mov    $0x3,%edi
  401ab0:	e8 79 03 00 00       	callq  401e2e <validate>
  401ab5:	bf 00 00 00 00       	mov    $0x0,%edi
  401aba:	e8 71 f3 ff ff       	callq  400e30 <exit@plt>
  401abf:	48 89 da             	mov    %rbx,%rdx
  401ac2:	48 8d 35 9f 18 00 00 	lea    0x189f(%rip),%rsi        # 403368 <_IO_stdin_used+0x378>
  401ac9:	bf 01 00 00 00       	mov    $0x1,%edi
  401ace:	b8 00 00 00 00       	mov    $0x0,%eax
  401ad3:	e8 08 f3 ff ff       	callq  400de0 <__printf_chk@plt>
  401ad8:	bf 03 00 00 00       	mov    $0x3,%edi
  401add:	e8 1c 04 00 00       	callq  401efe <fail>
  401ae2:	eb d1                	jmp    401ab5 <touch3+0x43>

0000000000401ae4 <test>:
  401ae4:	48 83 ec 08          	sub    $0x8,%rsp
  401ae8:	b8 00 00 00 00       	mov    $0x0,%eax
  401aed:	e8 25 fe ff ff       	callq  401917 <getbuf>
  401af2:	48 8d 0d 34 fe ff ff 	lea    -0x1cc(%rip),%rcx        # 40192d <touch1>
  401af9:	89 c2                	mov    %eax,%edx
  401afb:	48 8d 35 8e 18 00 00 	lea    0x188e(%rip),%rsi        # 403390 <_IO_stdin_used+0x3a0>
  401b02:	bf 01 00 00 00       	mov    $0x1,%edi
  401b07:	b8 00 00 00 00       	mov    $0x0,%eax
  401b0c:	e8 cf f2 ff ff       	callq  400de0 <__printf_chk@plt>
  401b11:	48 83 c4 08          	add    $0x8,%rsp
  401b15:	c3                   	retq   

0000000000401b16 <save_char>:
  401b16:	8b 05 08 46 20 00    	mov    0x204608(%rip),%eax        # 606124 <gets_cnt>
  401b1c:	3d ff 03 00 00       	cmp    $0x3ff,%eax
  401b21:	7f 4a                	jg     401b6d <save_char+0x57>
  401b23:	89 f9                	mov    %edi,%ecx
  401b25:	c0 e9 04             	shr    $0x4,%cl
  401b28:	8d 14 40             	lea    (%rax,%rax,2),%edx
  401b2b:	4c 8d 05 7e 1b 00 00 	lea    0x1b7e(%rip),%r8        # 4036b0 <trans_char>
  401b32:	83 e1 0f             	and    $0xf,%ecx
  401b35:	45 0f b6 0c 08       	movzbl (%r8,%rcx,1),%r9d
  401b3a:	48 8d 0d df 39 20 00 	lea    0x2039df(%rip),%rcx        # 605520 <gets_buf>
  401b41:	48 63 f2             	movslq %edx,%rsi
  401b44:	44 88 0c 31          	mov    %r9b,(%rcx,%rsi,1)
  401b48:	8d 72 01             	lea    0x1(%rdx),%esi
  401b4b:	83 e7 0f             	and    $0xf,%edi
  401b4e:	41 0f b6 3c 38       	movzbl (%r8,%rdi,1),%edi
  401b53:	48 63 f6             	movslq %esi,%rsi
  401b56:	40 88 3c 31          	mov    %dil,(%rcx,%rsi,1)
  401b5a:	83 c2 02             	add    $0x2,%edx
  401b5d:	48 63 d2             	movslq %edx,%rdx
  401b60:	c6 04 11 20          	movb   $0x20,(%rcx,%rdx,1)
  401b64:	83 c0 01             	add    $0x1,%eax
  401b67:	89 05 b7 45 20 00    	mov    %eax,0x2045b7(%rip)        # 606124 <gets_cnt>
  401b6d:	f3 c3                	repz retq 

0000000000401b6f <save_term>:
  401b6f:	8b 05 af 45 20 00    	mov    0x2045af(%rip),%eax        # 606124 <gets_cnt>
  401b75:	8d 04 40             	lea    (%rax,%rax,2),%eax
  401b78:	48 98                	cltq   
  401b7a:	48 8d 15 9f 39 20 00 	lea    0x20399f(%rip),%rdx        # 605520 <gets_buf>
  401b81:	c6 04 02 00          	movb   $0x0,(%rdx,%rax,1)
  401b85:	c3                   	retq   

0000000000401b86 <check_fail>:
  401b86:	48 83 ec 08          	sub    $0x8,%rsp
  401b8a:	0f be 15 97 45 20 00 	movsbl 0x204597(%rip),%edx        # 606128 <target_prefix>
  401b91:	4c 8d 05 88 39 20 00 	lea    0x203988(%rip),%r8        # 605520 <gets_buf>
  401b98:	8b 0d 5a 39 20 00    	mov    0x20395a(%rip),%ecx        # 6054f8 <check_level>
  401b9e:	48 8d 35 11 18 00 00 	lea    0x1811(%rip),%rsi        # 4033b6 <_IO_stdin_used+0x3c6>
  401ba5:	bf 01 00 00 00       	mov    $0x1,%edi
  401baa:	b8 00 00 00 00       	mov    $0x0,%eax
  401baf:	e8 2c f2 ff ff       	callq  400de0 <__printf_chk@plt>
  401bb4:	bf 01 00 00 00       	mov    $0x1,%edi
  401bb9:	e8 72 f2 ff ff       	callq  400e30 <exit@plt>

0000000000401bbe <Gets>:
  401bbe:	41 54                	push   %r12
  401bc0:	55                   	push   %rbp
  401bc1:	53                   	push   %rbx
  401bc2:	49 89 fc             	mov    %rdi,%r12
  401bc5:	c7 05 55 45 20 00 00 	movl   $0x0,0x204555(%rip)        # 606124 <gets_cnt>
  401bcc:	00 00 00 
  401bcf:	48 89 fb             	mov    %rdi,%rbx
  401bd2:	eb 11                	jmp    401be5 <Gets+0x27>
  401bd4:	48 8d 6b 01          	lea    0x1(%rbx),%rbp
  401bd8:	88 03                	mov    %al,(%rbx)
  401bda:	0f b6 f8             	movzbl %al,%edi
  401bdd:	e8 34 ff ff ff       	callq  401b16 <save_char>
  401be2:	48 89 eb             	mov    %rbp,%rbx
  401be5:	48 8b 3d 04 39 20 00 	mov    0x203904(%rip),%rdi        # 6054f0 <infile>
  401bec:	e8 bf f1 ff ff       	callq  400db0 <_IO_getc@plt>
  401bf1:	83 f8 ff             	cmp    $0xffffffff,%eax
  401bf4:	74 05                	je     401bfb <Gets+0x3d>
  401bf6:	83 f8 0a             	cmp    $0xa,%eax
  401bf9:	75 d9                	jne    401bd4 <Gets+0x16>
  401bfb:	c6 03 00             	movb   $0x0,(%rbx)
  401bfe:	b8 00 00 00 00       	mov    $0x0,%eax
  401c03:	e8 67 ff ff ff       	callq  401b6f <save_term>
  401c08:	4c 89 e0             	mov    %r12,%rax
  401c0b:	5b                   	pop    %rbx
  401c0c:	5d                   	pop    %rbp
  401c0d:	41 5c                	pop    %r12
  401c0f:	c3                   	retq   

0000000000401c10 <notify_server>:
  401c10:	55                   	push   %rbp
  401c11:	53                   	push   %rbx
  401c12:	48 81 ec 18 40 00 00 	sub    $0x4018,%rsp
  401c19:	64 48 8b 04 25 28 00 	mov    %fs:0x28,%rax
  401c20:	00 00 
  401c22:	48 89 84 24 08 40 00 	mov    %rax,0x4008(%rsp)
  401c29:	00 
  401c2a:	31 c0                	xor    %eax,%eax
  401c2c:	83 3d d5 38 20 00 00 	cmpl   $0x0,0x2038d5(%rip)        # 605508 <is_checker>
  401c33:	0f 85 d2 00 00 00    	jne    401d0b <notify_server+0xfb>
  401c39:	89 fb                	mov    %edi,%ebx
  401c3b:	8b 05 e3 44 20 00    	mov    0x2044e3(%rip),%eax        # 606124 <gets_cnt>
  401c41:	83 c0 64             	add    $0x64,%eax
  401c44:	3d 00 20 00 00       	cmp    $0x2000,%eax
  401c49:	0f 8f dd 00 00 00    	jg     401d2c <notify_server+0x11c>
  401c4f:	0f be 05 d2 44 20 00 	movsbl 0x2044d2(%rip),%eax        # 606128 <target_prefix>
  401c56:	83 3d 2b 38 20 00 00 	cmpl   $0x0,0x20382b(%rip)        # 605488 <notify>
  401c5d:	0f 84 e9 00 00 00    	je     401d4c <notify_server+0x13c>
  401c63:	8b 15 97 38 20 00    	mov    0x203897(%rip),%edx        # 605500 <authkey>
  401c69:	85 db                	test   %ebx,%ebx
  401c6b:	0f 84 e5 00 00 00    	je     401d56 <notify_server+0x146>
  401c71:	48 8d 2d 54 17 00 00 	lea    0x1754(%rip),%rbp        # 4033cc <_IO_stdin_used+0x3dc>
  401c78:	48 89 e7             	mov    %rsp,%rdi
  401c7b:	48 8d 0d 9e 38 20 00 	lea    0x20389e(%rip),%rcx        # 605520 <gets_buf>
  401c82:	51                   	push   %rcx
  401c83:	56                   	push   %rsi
  401c84:	50                   	push   %rax
  401c85:	52                   	push   %rdx
  401c86:	49 89 e9             	mov    %rbp,%r9
  401c89:	44 8b 05 a0 34 20 00 	mov    0x2034a0(%rip),%r8d        # 605130 <target_id>
  401c90:	48 8d 0d 3f 17 00 00 	lea    0x173f(%rip),%rcx        # 4033d6 <_IO_stdin_used+0x3e6>
  401c97:	ba 00 20 00 00       	mov    $0x2000,%edx
  401c9c:	be 01 00 00 00       	mov    $0x1,%esi
  401ca1:	b8 00 00 00 00       	mov    $0x0,%eax
  401ca6:	e8 b5 f1 ff ff       	callq  400e60 <__sprintf_chk@plt>
  401cab:	48 83 c4 20          	add    $0x20,%rsp
  401caf:	83 3d d2 37 20 00 00 	cmpl   $0x0,0x2037d2(%rip)        # 605488 <notify>
  401cb6:	0f 84 df 00 00 00    	je     401d9b <notify_server+0x18b>
  401cbc:	85 db                	test   %ebx,%ebx
  401cbe:	0f 84 c6 00 00 00    	je     401d8a <notify_server+0x17a>
  401cc4:	48 89 e1             	mov    %rsp,%rcx
  401cc7:	4c 8d 8c 24 00 20 00 	lea    0x2000(%rsp),%r9
  401cce:	00 
  401ccf:	41 b8 00 00 00 00    	mov    $0x0,%r8d
  401cd5:	48 8b 15 6c 34 20 00 	mov    0x20346c(%rip),%rdx        # 605148 <lab>
  401cdc:	48 8b 35 6d 34 20 00 	mov    0x20346d(%rip),%rsi        # 605150 <course>
  401ce3:	48 8b 3d 56 34 20 00 	mov    0x203456(%rip),%rdi        # 605140 <user_id>
  401cea:	e8 af 11 00 00       	callq  402e9e <driver_post>
  401cef:	85 c0                	test   %eax,%eax
  401cf1:	78 6f                	js     401d62 <notify_server+0x152>
  401cf3:	48 8d 3d 1e 18 00 00 	lea    0x181e(%rip),%rdi        # 403518 <_IO_stdin_used+0x528>
  401cfa:	e8 c1 ef ff ff       	callq  400cc0 <puts@plt>
  401cff:	48 8d 3d f8 16 00 00 	lea    0x16f8(%rip),%rdi        # 4033fe <_IO_stdin_used+0x40e>
  401d06:	e8 b5 ef ff ff       	callq  400cc0 <puts@plt>
  401d0b:	48 8b 84 24 08 40 00 	mov    0x4008(%rsp),%rax
  401d12:	00 
  401d13:	64 48 33 04 25 28 00 	xor    %fs:0x28,%rax
  401d1a:	00 00 
  401d1c:	0f 85 07 01 00 00    	jne    401e29 <notify_server+0x219>
  401d22:	48 81 c4 18 40 00 00 	add    $0x4018,%rsp
  401d29:	5b                   	pop    %rbx
  401d2a:	5d                   	pop    %rbp
  401d2b:	c3                   	retq   
  401d2c:	48 8d 35 b5 17 00 00 	lea    0x17b5(%rip),%rsi        # 4034e8 <_IO_stdin_used+0x4f8>
  401d33:	bf 01 00 00 00       	mov    $0x1,%edi
  401d38:	b8 00 00 00 00       	mov    $0x0,%eax
  401d3d:	e8 9e f0 ff ff       	callq  400de0 <__printf_chk@plt>
  401d42:	bf 01 00 00 00       	mov    $0x1,%edi
  401d47:	e8 e4 f0 ff ff       	callq  400e30 <exit@plt>
  401d4c:	ba ff ff ff ff       	mov    $0xffffffff,%edx
  401d51:	e9 13 ff ff ff       	jmpq   401c69 <notify_server+0x59>
  401d56:	48 8d 2d 74 16 00 00 	lea    0x1674(%rip),%rbp        # 4033d1 <_IO_stdin_used+0x3e1>
  401d5d:	e9 16 ff ff ff       	jmpq   401c78 <notify_server+0x68>
  401d62:	48 8d 94 24 00 20 00 	lea    0x2000(%rsp),%rdx
  401d69:	00 
  401d6a:	48 8d 35 81 16 00 00 	lea    0x1681(%rip),%rsi        # 4033f2 <_IO_stdin_used+0x402>
  401d71:	bf 01 00 00 00       	mov    $0x1,%edi
  401d76:	b8 00 00 00 00       	mov    $0x0,%eax
  401d7b:	e8 60 f0 ff ff       	callq  400de0 <__printf_chk@plt>
  401d80:	bf 01 00 00 00       	mov    $0x1,%edi
  401d85:	e8 a6 f0 ff ff       	callq  400e30 <exit@plt>
  401d8a:	48 8d 3d 77 16 00 00 	lea    0x1677(%rip),%rdi        # 403408 <_IO_stdin_used+0x418>
  401d91:	e8 2a ef ff ff       	callq  400cc0 <puts@plt>
  401d96:	e9 70 ff ff ff       	jmpq   401d0b <notify_server+0xfb>
  401d9b:	48 89 ea             	mov    %rbp,%rdx
  401d9e:	48 8d 35 ab 17 00 00 	lea    0x17ab(%rip),%rsi        # 403550 <_IO_stdin_used+0x560>
  401da5:	bf 01 00 00 00       	mov    $0x1,%edi
  401daa:	b8 00 00 00 00       	mov    $0x0,%eax
  401daf:	e8 2c f0 ff ff       	callq  400de0 <__printf_chk@plt>
  401db4:	48 8b 15 85 33 20 00 	mov    0x203385(%rip),%rdx        # 605140 <user_id>
  401dbb:	48 8d 35 4d 16 00 00 	lea    0x164d(%rip),%rsi        # 40340f <_IO_stdin_used+0x41f>
  401dc2:	bf 01 00 00 00       	mov    $0x1,%edi
  401dc7:	b8 00 00 00 00       	mov    $0x0,%eax
  401dcc:	e8 0f f0 ff ff       	callq  400de0 <__printf_chk@plt>
  401dd1:	48 8b 15 78 33 20 00 	mov    0x203378(%rip),%rdx        # 605150 <course>
  401dd8:	48 8d 35 3d 16 00 00 	lea    0x163d(%rip),%rsi        # 40341c <_IO_stdin_used+0x42c>
  401ddf:	bf 01 00 00 00       	mov    $0x1,%edi
  401de4:	b8 00 00 00 00       	mov    $0x0,%eax
  401de9:	e8 f2 ef ff ff       	callq  400de0 <__printf_chk@plt>
  401dee:	48 8b 15 53 33 20 00 	mov    0x203353(%rip),%rdx        # 605148 <lab>
  401df5:	48 8d 35 2c 16 00 00 	lea    0x162c(%rip),%rsi        # 403428 <_IO_stdin_used+0x438>
  401dfc:	bf 01 00 00 00       	mov    $0x1,%edi
  401e01:	b8 00 00 00 00       	mov    $0x0,%eax
  401e06:	e8 d5 ef ff ff       	callq  400de0 <__printf_chk@plt>
  401e0b:	48 89 e2             	mov    %rsp,%rdx
  401e0e:	48 8d 35 1c 16 00 00 	lea    0x161c(%rip),%rsi        # 403431 <_IO_stdin_used+0x441>
  401e15:	bf 01 00 00 00       	mov    $0x1,%edi
  401e1a:	b8 00 00 00 00       	mov    $0x0,%eax
  401e1f:	e8 bc ef ff ff       	callq  400de0 <__printf_chk@plt>
  401e24:	e9 e2 fe ff ff       	jmpq   401d0b <notify_server+0xfb>
  401e29:	e8 b2 ee ff ff       	callq  400ce0 <__stack_chk_fail@plt>

0000000000401e2e <validate>:
  401e2e:	53                   	push   %rbx
  401e2f:	89 fb                	mov    %edi,%ebx
  401e31:	83 3d d0 36 20 00 00 	cmpl   $0x0,0x2036d0(%rip)        # 605508 <is_checker>
  401e38:	74 72                	je     401eac <validate+0x7e>
  401e3a:	39 3d bc 36 20 00    	cmp    %edi,0x2036bc(%rip)        # 6054fc <vlevel>
  401e40:	75 32                	jne    401e74 <validate+0x46>
  401e42:	8b 15 b0 36 20 00    	mov    0x2036b0(%rip),%edx        # 6054f8 <check_level>
  401e48:	39 fa                	cmp    %edi,%edx
  401e4a:	75 3e                	jne    401e8a <validate+0x5c>
  401e4c:	0f be 15 d5 42 20 00 	movsbl 0x2042d5(%rip),%edx        # 606128 <target_prefix>
  401e53:	4c 8d 05 c6 36 20 00 	lea    0x2036c6(%rip),%r8        # 605520 <gets_buf>
  401e5a:	89 f9                	mov    %edi,%ecx
  401e5c:	48 8d 35 f8 15 00 00 	lea    0x15f8(%rip),%rsi        # 40345b <_IO_stdin_used+0x46b>
  401e63:	bf 01 00 00 00       	mov    $0x1,%edi
  401e68:	b8 00 00 00 00       	mov    $0x0,%eax
  401e6d:	e8 6e ef ff ff       	callq  400de0 <__printf_chk@plt>
  401e72:	5b                   	pop    %rbx
  401e73:	c3                   	retq   
  401e74:	48 8d 3d c2 15 00 00 	lea    0x15c2(%rip),%rdi        # 40343d <_IO_stdin_used+0x44d>
  401e7b:	e8 40 ee ff ff       	callq  400cc0 <puts@plt>
  401e80:	b8 00 00 00 00       	mov    $0x0,%eax
  401e85:	e8 fc fc ff ff       	callq  401b86 <check_fail>
  401e8a:	89 f9                	mov    %edi,%ecx
  401e8c:	48 8d 35 e5 16 00 00 	lea    0x16e5(%rip),%rsi        # 403578 <_IO_stdin_used+0x588>
  401e93:	bf 01 00 00 00       	mov    $0x1,%edi
  401e98:	b8 00 00 00 00       	mov    $0x0,%eax
  401e9d:	e8 3e ef ff ff       	callq  400de0 <__printf_chk@plt>
  401ea2:	b8 00 00 00 00       	mov    $0x0,%eax
  401ea7:	e8 da fc ff ff       	callq  401b86 <check_fail>
  401eac:	39 3d 4a 36 20 00    	cmp    %edi,0x20364a(%rip)        # 6054fc <vlevel>
  401eb2:	74 1a                	je     401ece <validate+0xa0>
  401eb4:	48 8d 3d 82 15 00 00 	lea    0x1582(%rip),%rdi        # 40343d <_IO_stdin_used+0x44d>
  401ebb:	e8 00 ee ff ff       	callq  400cc0 <puts@plt>
  401ec0:	89 de                	mov    %ebx,%esi
  401ec2:	bf 00 00 00 00       	mov    $0x0,%edi
  401ec7:	e8 44 fd ff ff       	callq  401c10 <notify_server>
  401ecc:	eb a4                	jmp    401e72 <validate+0x44>
  401ece:	0f be 0d 53 42 20 00 	movsbl 0x204253(%rip),%ecx        # 606128 <target_prefix>
  401ed5:	89 fa                	mov    %edi,%edx
  401ed7:	48 8d 35 c2 16 00 00 	lea    0x16c2(%rip),%rsi        # 4035a0 <_IO_stdin_used+0x5b0>
  401ede:	bf 01 00 00 00       	mov    $0x1,%edi
  401ee3:	b8 00 00 00 00       	mov    $0x0,%eax
  401ee8:	e8 f3 ee ff ff       	callq  400de0 <__printf_chk@plt>
  401eed:	89 de                	mov    %ebx,%esi
  401eef:	bf 01 00 00 00       	mov    $0x1,%edi
  401ef4:	e8 17 fd ff ff       	callq  401c10 <notify_server>
  401ef9:	e9 74 ff ff ff       	jmpq   401e72 <validate+0x44>

0000000000401efe <fail>:
  401efe:	48 83 ec 08          	sub    $0x8,%rsp
  401f02:	83 3d ff 35 20 00 00 	cmpl   $0x0,0x2035ff(%rip)        # 605508 <is_checker>
  401f09:	75 11                	jne    401f1c <fail+0x1e>
  401f0b:	89 fe                	mov    %edi,%esi
  401f0d:	bf 00 00 00 00       	mov    $0x0,%edi
  401f12:	e8 f9 fc ff ff       	callq  401c10 <notify_server>
  401f17:	48 83 c4 08          	add    $0x8,%rsp
  401f1b:	c3                   	retq   
  401f1c:	b8 00 00 00 00       	mov    $0x0,%eax
  401f21:	e8 60 fc ff ff       	callq  401b86 <check_fail>

0000000000401f26 <bushandler>:
  401f26:	48 83 ec 08          	sub    $0x8,%rsp
  401f2a:	83 3d d7 35 20 00 00 	cmpl   $0x0,0x2035d7(%rip)        # 605508 <is_checker>
  401f31:	74 16                	je     401f49 <bushandler+0x23>
  401f33:	48 8d 3d 36 15 00 00 	lea    0x1536(%rip),%rdi        # 403470 <_IO_stdin_used+0x480>
  401f3a:	e8 81 ed ff ff       	callq  400cc0 <puts@plt>
  401f3f:	b8 00 00 00 00       	mov    $0x0,%eax
  401f44:	e8 3d fc ff ff       	callq  401b86 <check_fail>
  401f49:	48 8d 3d 88 16 00 00 	lea    0x1688(%rip),%rdi        # 4035d8 <_IO_stdin_used+0x5e8>
  401f50:	e8 6b ed ff ff       	callq  400cc0 <puts@plt>
  401f55:	48 8d 3d 1e 15 00 00 	lea    0x151e(%rip),%rdi        # 40347a <_IO_stdin_used+0x48a>
  401f5c:	e8 5f ed ff ff       	callq  400cc0 <puts@plt>
  401f61:	be 00 00 00 00       	mov    $0x0,%esi
  401f66:	bf 00 00 00 00       	mov    $0x0,%edi
  401f6b:	e8 a0 fc ff ff       	callq  401c10 <notify_server>
  401f70:	bf 01 00 00 00       	mov    $0x1,%edi
  401f75:	e8 b6 ee ff ff       	callq  400e30 <exit@plt>

0000000000401f7a <seghandler>:
  401f7a:	48 83 ec 08          	sub    $0x8,%rsp
  401f7e:	83 3d 83 35 20 00 00 	cmpl   $0x0,0x203583(%rip)        # 605508 <is_checker>
  401f85:	74 16                	je     401f9d <seghandler+0x23>
  401f87:	48 8d 3d 02 15 00 00 	lea    0x1502(%rip),%rdi        # 403490 <_IO_stdin_used+0x4a0>
  401f8e:	e8 2d ed ff ff       	callq  400cc0 <puts@plt>
  401f93:	b8 00 00 00 00       	mov    $0x0,%eax
  401f98:	e8 e9 fb ff ff       	callq  401b86 <check_fail>
  401f9d:	48 8d 3d 54 16 00 00 	lea    0x1654(%rip),%rdi        # 4035f8 <_IO_stdin_used+0x608>
  401fa4:	e8 17 ed ff ff       	callq  400cc0 <puts@plt>
  401fa9:	48 8d 3d ca 14 00 00 	lea    0x14ca(%rip),%rdi        # 40347a <_IO_stdin_used+0x48a>
  401fb0:	e8 0b ed ff ff       	callq  400cc0 <puts@plt>
  401fb5:	be 00 00 00 00       	mov    $0x0,%esi
  401fba:	bf 00 00 00 00       	mov    $0x0,%edi
  401fbf:	e8 4c fc ff ff       	callq  401c10 <notify_server>
  401fc4:	bf 01 00 00 00       	mov    $0x1,%edi
  401fc9:	e8 62 ee ff ff       	callq  400e30 <exit@plt>

0000000000401fce <illegalhandler>:
  401fce:	48 83 ec 08          	sub    $0x8,%rsp
  401fd2:	83 3d 2f 35 20 00 00 	cmpl   $0x0,0x20352f(%rip)        # 605508 <is_checker>
  401fd9:	74 16                	je     401ff1 <illegalhandler+0x23>
  401fdb:	48 8d 3d c1 14 00 00 	lea    0x14c1(%rip),%rdi        # 4034a3 <_IO_stdin_used+0x4b3>
  401fe2:	e8 d9 ec ff ff       	callq  400cc0 <puts@plt>
  401fe7:	b8 00 00 00 00       	mov    $0x0,%eax
  401fec:	e8 95 fb ff ff       	callq  401b86 <check_fail>
  401ff1:	48 8d 3d 28 16 00 00 	lea    0x1628(%rip),%rdi        # 403620 <_IO_stdin_used+0x630>
  401ff8:	e8 c3 ec ff ff       	callq  400cc0 <puts@plt>
  401ffd:	48 8d 3d 76 14 00 00 	lea    0x1476(%rip),%rdi        # 40347a <_IO_stdin_used+0x48a>
  402004:	e8 b7 ec ff ff       	callq  400cc0 <puts@plt>
  402009:	be 00 00 00 00       	mov    $0x0,%esi
  40200e:	bf 00 00 00 00       	mov    $0x0,%edi
  402013:	e8 f8 fb ff ff       	callq  401c10 <notify_server>
  402018:	bf 01 00 00 00       	mov    $0x1,%edi
  40201d:	e8 0e ee ff ff       	callq  400e30 <exit@plt>

0000000000402022 <sigalrmhandler>:
  402022:	48 83 ec 08          	sub    $0x8,%rsp
  402026:	83 3d db 34 20 00 00 	cmpl   $0x0,0x2034db(%rip)        # 605508 <is_checker>
  40202d:	74 16                	je     402045 <sigalrmhandler+0x23>
  40202f:	48 8d 3d 81 14 00 00 	lea    0x1481(%rip),%rdi        # 4034b7 <_IO_stdin_used+0x4c7>
  402036:	e8 85 ec ff ff       	callq  400cc0 <puts@plt>
  40203b:	b8 00 00 00 00       	mov    $0x0,%eax
  402040:	e8 41 fb ff ff       	callq  401b86 <check_fail>
  402045:	ba 05 00 00 00       	mov    $0x5,%edx
  40204a:	48 8d 35 ff 15 00 00 	lea    0x15ff(%rip),%rsi        # 403650 <_IO_stdin_used+0x660>
  402051:	bf 01 00 00 00       	mov    $0x1,%edi
  402056:	b8 00 00 00 00       	mov    $0x0,%eax
  40205b:	e8 80 ed ff ff       	callq  400de0 <__printf_chk@plt>
  402060:	be 00 00 00 00       	mov    $0x0,%esi
  402065:	bf 00 00 00 00       	mov    $0x0,%edi
  40206a:	e8 a1 fb ff ff       	callq  401c10 <notify_server>
  40206f:	bf 01 00 00 00       	mov    $0x1,%edi
  402074:	e8 b7 ed ff ff       	callq  400e30 <exit@plt>

0000000000402079 <launch>:
  402079:	55                   	push   %rbp
  40207a:	48 89 e5             	mov    %rsp,%rbp
  40207d:	48 83 ec 10          	sub    $0x10,%rsp
  402081:	48 89 fa             	mov    %rdi,%rdx
  402084:	64 48 8b 04 25 28 00 	mov    %fs:0x28,%rax
  40208b:	00 00 
  40208d:	48 89 45 f8          	mov    %rax,-0x8(%rbp)
  402091:	31 c0                	xor    %eax,%eax
  402093:	48 8d 47 1e          	lea    0x1e(%rdi),%rax
  402097:	48 83 e0 f0          	and    $0xfffffffffffffff0,%rax
  40209b:	48 29 c4             	sub    %rax,%rsp
  40209e:	48 8d 7c 24 0f       	lea    0xf(%rsp),%rdi
  4020a3:	48 83 e7 f0          	and    $0xfffffffffffffff0,%rdi
  4020a7:	be f4 00 00 00       	mov    $0xf4,%esi
  4020ac:	e8 4f ec ff ff       	callq  400d00 <memset@plt>
  4020b1:	48 8b 05 e8 33 20 00 	mov    0x2033e8(%rip),%rax        # 6054a0 <stdin@@GLIBC_2.2.5>
  4020b8:	48 39 05 31 34 20 00 	cmp    %rax,0x203431(%rip)        # 6054f0 <infile>
  4020bf:	74 3a                	je     4020fb <launch+0x82>
  4020c1:	c7 05 31 34 20 00 00 	movl   $0x0,0x203431(%rip)        # 6054fc <vlevel>
  4020c8:	00 00 00 
  4020cb:	b8 00 00 00 00       	mov    $0x0,%eax
  4020d0:	e8 0f fa ff ff       	callq  401ae4 <test>
  4020d5:	83 3d 2c 34 20 00 00 	cmpl   $0x0,0x20342c(%rip)        # 605508 <is_checker>
  4020dc:	75 35                	jne    402113 <launch+0x9a>
  4020de:	48 8d 3d f2 13 00 00 	lea    0x13f2(%rip),%rdi        # 4034d7 <_IO_stdin_used+0x4e7>
  4020e5:	e8 d6 eb ff ff       	callq  400cc0 <puts@plt>
  4020ea:	48 8b 45 f8          	mov    -0x8(%rbp),%rax
  4020ee:	64 48 33 04 25 28 00 	xor    %fs:0x28,%rax
  4020f5:	00 00 
  4020f7:	75 30                	jne    402129 <launch+0xb0>
  4020f9:	c9                   	leaveq 
  4020fa:	c3                   	retq   
  4020fb:	48 8d 35 bd 13 00 00 	lea    0x13bd(%rip),%rsi        # 4034bf <_IO_stdin_used+0x4cf>
  402102:	bf 01 00 00 00       	mov    $0x1,%edi
  402107:	b8 00 00 00 00       	mov    $0x0,%eax
  40210c:	e8 cf ec ff ff       	callq  400de0 <__printf_chk@plt>
  402111:	eb ae                	jmp    4020c1 <launch+0x48>
  402113:	48 8d 3d b2 13 00 00 	lea    0x13b2(%rip),%rdi        # 4034cc <_IO_stdin_used+0x4dc>
  40211a:	e8 a1 eb ff ff       	callq  400cc0 <puts@plt>
  40211f:	b8 00 00 00 00       	mov    $0x0,%eax
  402124:	e8 5d fa ff ff       	callq  401b86 <check_fail>
  402129:	e8 b2 eb ff ff       	callq  400ce0 <__stack_chk_fail@plt>

000000000040212e <stable_launch>:
  40212e:	53                   	push   %rbx
  40212f:	48 89 3d b2 33 20 00 	mov    %rdi,0x2033b2(%rip)        # 6054e8 <global_offset>
  402136:	41 b9 00 00 00 00    	mov    $0x0,%r9d
  40213c:	41 b8 00 00 00 00    	mov    $0x0,%r8d
  402142:	b9 32 01 00 00       	mov    $0x132,%ecx
  402147:	ba 07 00 00 00       	mov    $0x7,%edx
  40214c:	be 00 00 10 00       	mov    $0x100000,%esi
  402151:	bf 00 60 58 55       	mov    $0x55586000,%edi
  402156:	e8 95 eb ff ff       	callq  400cf0 <mmap@plt>
  40215b:	48 89 c3             	mov    %rax,%rbx
  40215e:	48 3d 00 60 58 55    	cmp    $0x55586000,%rax
  402164:	75 43                	jne    4021a9 <stable_launch+0x7b>
  402166:	48 8d 90 f8 ff 0f 00 	lea    0xffff8(%rax),%rdx
  40216d:	48 89 15 bc 3f 20 00 	mov    %rdx,0x203fbc(%rip)        # 606130 <stack_top>
  402174:	48 89 e0             	mov    %rsp,%rax
  402177:	48 89 d4             	mov    %rdx,%rsp
  40217a:	48 89 c2             	mov    %rax,%rdx
  40217d:	48 89 15 5c 33 20 00 	mov    %rdx,0x20335c(%rip)        # 6054e0 <global_save_stack>
  402184:	48 8b 3d 5d 33 20 00 	mov    0x20335d(%rip),%rdi        # 6054e8 <global_offset>
  40218b:	e8 e9 fe ff ff       	callq  402079 <launch>
  402190:	48 8b 05 49 33 20 00 	mov    0x203349(%rip),%rax        # 6054e0 <global_save_stack>
  402197:	48 89 c4             	mov    %rax,%rsp
  40219a:	be 00 00 10 00       	mov    $0x100000,%esi
  40219f:	48 89 df             	mov    %rbx,%rdi
  4021a2:	e8 29 ec ff ff       	callq  400dd0 <munmap@plt>
  4021a7:	5b                   	pop    %rbx
  4021a8:	c3                   	retq   
  4021a9:	be 00 00 10 00       	mov    $0x100000,%esi
  4021ae:	48 89 c7             	mov    %rax,%rdi
  4021b1:	e8 1a ec ff ff       	callq  400dd0 <munmap@plt>
  4021b6:	b9 00 60 58 55       	mov    $0x55586000,%ecx
  4021bb:	48 8d 15 c6 14 00 00 	lea    0x14c6(%rip),%rdx        # 403688 <_IO_stdin_used+0x698>
  4021c2:	be 01 00 00 00       	mov    $0x1,%esi
  4021c7:	48 8b 3d f2 32 20 00 	mov    0x2032f2(%rip),%rdi        # 6054c0 <stderr@@GLIBC_2.2.5>
  4021ce:	b8 00 00 00 00       	mov    $0x0,%eax
  4021d3:	e8 78 ec ff ff       	callq  400e50 <__fprintf_chk@plt>
  4021d8:	bf 01 00 00 00       	mov    $0x1,%edi
  4021dd:	e8 4e ec ff ff       	callq  400e30 <exit@plt>

00000000004021e2 <rio_readinitb>:
  4021e2:	89 37                	mov    %esi,(%rdi)
  4021e4:	c7 47 04 00 00 00 00 	movl   $0x0,0x4(%rdi)
  4021eb:	48 8d 47 10          	lea    0x10(%rdi),%rax
  4021ef:	48 89 47 08          	mov    %rax,0x8(%rdi)
  4021f3:	c3                   	retq   

00000000004021f4 <sigalrm_handler>:
  4021f4:	48 83 ec 08          	sub    $0x8,%rsp
  4021f8:	b9 00 00 00 00       	mov    $0x0,%ecx
  4021fd:	48 8d 15 bc 14 00 00 	lea    0x14bc(%rip),%rdx        # 4036c0 <trans_char+0x10>
  402204:	be 01 00 00 00       	mov    $0x1,%esi
  402209:	48 8b 3d b0 32 20 00 	mov    0x2032b0(%rip),%rdi        # 6054c0 <stderr@@GLIBC_2.2.5>
  402210:	b8 00 00 00 00       	mov    $0x0,%eax
  402215:	e8 36 ec ff ff       	callq  400e50 <__fprintf_chk@plt>
  40221a:	bf 01 00 00 00       	mov    $0x1,%edi
  40221f:	e8 0c ec ff ff       	callq  400e30 <exit@plt>

0000000000402224 <rio_writen>:
  402224:	41 55                	push   %r13
  402226:	41 54                	push   %r12
  402228:	55                   	push   %rbp
  402229:	53                   	push   %rbx
  40222a:	48 83 ec 08          	sub    $0x8,%rsp
  40222e:	41 89 fc             	mov    %edi,%r12d
  402231:	48 89 f5             	mov    %rsi,%rbp
  402234:	49 89 d5             	mov    %rdx,%r13
  402237:	48 89 d3             	mov    %rdx,%rbx
  40223a:	eb 06                	jmp    402242 <rio_writen+0x1e>
  40223c:	48 29 c3             	sub    %rax,%rbx
  40223f:	48 01 c5             	add    %rax,%rbp
  402242:	48 85 db             	test   %rbx,%rbx
  402245:	74 24                	je     40226b <rio_writen+0x47>
  402247:	48 89 da             	mov    %rbx,%rdx
  40224a:	48 89 ee             	mov    %rbp,%rsi
  40224d:	44 89 e7             	mov    %r12d,%edi
  402250:	e8 7b ea ff ff       	callq  400cd0 <write@plt>
  402255:	48 85 c0             	test   %rax,%rax
  402258:	7f e2                	jg     40223c <rio_writen+0x18>
  40225a:	e8 21 ea ff ff       	callq  400c80 <__errno_location@plt>
  40225f:	83 38 04             	cmpl   $0x4,(%rax)
  402262:	75 15                	jne    402279 <rio_writen+0x55>
  402264:	b8 00 00 00 00       	mov    $0x0,%eax
  402269:	eb d1                	jmp    40223c <rio_writen+0x18>
  40226b:	4c 89 e8             	mov    %r13,%rax
  40226e:	48 83 c4 08          	add    $0x8,%rsp
  402272:	5b                   	pop    %rbx
  402273:	5d                   	pop    %rbp
  402274:	41 5c                	pop    %r12
  402276:	41 5d                	pop    %r13
  402278:	c3                   	retq   
  402279:	48 c7 c0 ff ff ff ff 	mov    $0xffffffffffffffff,%rax
  402280:	eb ec                	jmp    40226e <rio_writen+0x4a>

0000000000402282 <rio_read>:
  402282:	41 55                	push   %r13
  402284:	41 54                	push   %r12
  402286:	55                   	push   %rbp
  402287:	53                   	push   %rbx
  402288:	48 83 ec 08          	sub    $0x8,%rsp
  40228c:	48 89 fb             	mov    %rdi,%rbx
  40228f:	49 89 f5             	mov    %rsi,%r13
  402292:	49 89 d4             	mov    %rdx,%r12
  402295:	eb 0a                	jmp    4022a1 <rio_read+0x1f>
  402297:	e8 e4 e9 ff ff       	callq  400c80 <__errno_location@plt>
  40229c:	83 38 04             	cmpl   $0x4,(%rax)
  40229f:	75 5c                	jne    4022fd <rio_read+0x7b>
  4022a1:	8b 6b 04             	mov    0x4(%rbx),%ebp
  4022a4:	85 ed                	test   %ebp,%ebp
  4022a6:	7f 24                	jg     4022cc <rio_read+0x4a>
  4022a8:	48 8d 6b 10          	lea    0x10(%rbx),%rbp
  4022ac:	8b 3b                	mov    (%rbx),%edi
  4022ae:	ba 00 20 00 00       	mov    $0x2000,%edx
  4022b3:	48 89 ee             	mov    %rbp,%rsi
  4022b6:	e8 75 ea ff ff       	callq  400d30 <read@plt>
  4022bb:	89 43 04             	mov    %eax,0x4(%rbx)
  4022be:	85 c0                	test   %eax,%eax
  4022c0:	78 d5                	js     402297 <rio_read+0x15>
  4022c2:	85 c0                	test   %eax,%eax
  4022c4:	74 40                	je     402306 <rio_read+0x84>
  4022c6:	48 89 6b 08          	mov    %rbp,0x8(%rbx)
  4022ca:	eb d5                	jmp    4022a1 <rio_read+0x1f>
  4022cc:	89 e8                	mov    %ebp,%eax
  4022ce:	4c 39 e0             	cmp    %r12,%rax
  4022d1:	72 03                	jb     4022d6 <rio_read+0x54>
  4022d3:	44 89 e5             	mov    %r12d,%ebp
  4022d6:	4c 63 e5             	movslq %ebp,%r12
  4022d9:	48 8b 73 08          	mov    0x8(%rbx),%rsi
  4022dd:	4c 89 e2             	mov    %r12,%rdx
  4022e0:	4c 89 ef             	mov    %r13,%rdi
  4022e3:	e8 98 ea ff ff       	callq  400d80 <memcpy@plt>
  4022e8:	4c 01 63 08          	add    %r12,0x8(%rbx)
  4022ec:	29 6b 04             	sub    %ebp,0x4(%rbx)
  4022ef:	4c 89 e0             	mov    %r12,%rax
  4022f2:	48 83 c4 08          	add    $0x8,%rsp
  4022f6:	5b                   	pop    %rbx
  4022f7:	5d                   	pop    %rbp
  4022f8:	41 5c                	pop    %r12
  4022fa:	41 5d                	pop    %r13
  4022fc:	c3                   	retq   
  4022fd:	48 c7 c0 ff ff ff ff 	mov    $0xffffffffffffffff,%rax
  402304:	eb ec                	jmp    4022f2 <rio_read+0x70>
  402306:	b8 00 00 00 00       	mov    $0x0,%eax
  40230b:	eb e5                	jmp    4022f2 <rio_read+0x70>

000000000040230d <rio_readlineb>:
  40230d:	41 55                	push   %r13
  40230f:	41 54                	push   %r12
  402311:	55                   	push   %rbp
  402312:	53                   	push   %rbx
  402313:	48 83 ec 18          	sub    $0x18,%rsp
  402317:	49 89 fd             	mov    %rdi,%r13
  40231a:	48 89 f5             	mov    %rsi,%rbp
  40231d:	49 89 d4             	mov    %rdx,%r12
  402320:	64 48 8b 04 25 28 00 	mov    %fs:0x28,%rax
  402327:	00 00 
  402329:	48 89 44 24 08       	mov    %rax,0x8(%rsp)
  40232e:	31 c0                	xor    %eax,%eax
  402330:	bb 01 00 00 00       	mov    $0x1,%ebx
  402335:	4c 39 e3             	cmp    %r12,%rbx
  402338:	73 47                	jae    402381 <rio_readlineb+0x74>
  40233a:	48 8d 74 24 07       	lea    0x7(%rsp),%rsi
  40233f:	ba 01 00 00 00       	mov    $0x1,%edx
  402344:	4c 89 ef             	mov    %r13,%rdi
  402347:	e8 36 ff ff ff       	callq  402282 <rio_read>
  40234c:	83 f8 01             	cmp    $0x1,%eax
  40234f:	75 1c                	jne    40236d <rio_readlineb+0x60>
  402351:	48 8d 45 01          	lea    0x1(%rbp),%rax
  402355:	0f b6 54 24 07       	movzbl 0x7(%rsp),%edx
  40235a:	88 55 00             	mov    %dl,0x0(%rbp)
  40235d:	80 7c 24 07 0a       	cmpb   $0xa,0x7(%rsp)
  402362:	74 1a                	je     40237e <rio_readlineb+0x71>
  402364:	48 83 c3 01          	add    $0x1,%rbx
  402368:	48 89 c5             	mov    %rax,%rbp
  40236b:	eb c8                	jmp    402335 <rio_readlineb+0x28>
  40236d:	85 c0                	test   %eax,%eax
  40236f:	75 32                	jne    4023a3 <rio_readlineb+0x96>
  402371:	48 83 fb 01          	cmp    $0x1,%rbx
  402375:	75 0a                	jne    402381 <rio_readlineb+0x74>
  402377:	b8 00 00 00 00       	mov    $0x0,%eax
  40237c:	eb 0a                	jmp    402388 <rio_readlineb+0x7b>
  40237e:	48 89 c5             	mov    %rax,%rbp
  402381:	c6 45 00 00          	movb   $0x0,0x0(%rbp)
  402385:	48 89 d8             	mov    %rbx,%rax
  402388:	48 8b 4c 24 08       	mov    0x8(%rsp),%rcx
  40238d:	64 48 33 0c 25 28 00 	xor    %fs:0x28,%rcx
  402394:	00 00 
  402396:	75 14                	jne    4023ac <rio_readlineb+0x9f>
  402398:	48 83 c4 18          	add    $0x18,%rsp
  40239c:	5b                   	pop    %rbx
  40239d:	5d                   	pop    %rbp
  40239e:	41 5c                	pop    %r12
  4023a0:	41 5d                	pop    %r13
  4023a2:	c3                   	retq   
  4023a3:	48 c7 c0 ff ff ff ff 	mov    $0xffffffffffffffff,%rax
  4023aa:	eb dc                	jmp    402388 <rio_readlineb+0x7b>
  4023ac:	e8 2f e9 ff ff       	callq  400ce0 <__stack_chk_fail@plt>

00000000004023b1 <urlencode>:
  4023b1:	41 54                	push   %r12
  4023b3:	55                   	push   %rbp
  4023b4:	53                   	push   %rbx
  4023b5:	48 83 ec 10          	sub    $0x10,%rsp
  4023b9:	48 89 fb             	mov    %rdi,%rbx
  4023bc:	48 89 f5             	mov    %rsi,%rbp
  4023bf:	64 48 8b 04 25 28 00 	mov    %fs:0x28,%rax
  4023c6:	00 00 
  4023c8:	48 89 44 24 08       	mov    %rax,0x8(%rsp)
  4023cd:	31 c0                	xor    %eax,%eax
  4023cf:	48 c7 c1 ff ff ff ff 	mov    $0xffffffffffffffff,%rcx
  4023d6:	f2 ae                	repnz scas %es:(%rdi),%al
  4023d8:	48 89 ce             	mov    %rcx,%rsi
  4023db:	48 f7 d6             	not    %rsi
  4023de:	8d 46 ff             	lea    -0x1(%rsi),%eax
  4023e1:	eb 0f                	jmp    4023f2 <urlencode+0x41>
  4023e3:	44 88 45 00          	mov    %r8b,0x0(%rbp)
  4023e7:	48 8d 6d 01          	lea    0x1(%rbp),%rbp
  4023eb:	48 83 c3 01          	add    $0x1,%rbx
  4023ef:	44 89 e0             	mov    %r12d,%eax
  4023f2:	44 8d 60 ff          	lea    -0x1(%rax),%r12d
  4023f6:	85 c0                	test   %eax,%eax
  4023f8:	0f 84 a8 00 00 00    	je     4024a6 <urlencode+0xf5>
  4023fe:	44 0f b6 03          	movzbl (%rbx),%r8d
  402402:	41 80 f8 2a          	cmp    $0x2a,%r8b
  402406:	0f 94 c2             	sete   %dl
  402409:	41 80 f8 2d          	cmp    $0x2d,%r8b
  40240d:	0f 94 c0             	sete   %al
  402410:	08 c2                	or     %al,%dl
  402412:	75 cf                	jne    4023e3 <urlencode+0x32>
  402414:	41 80 f8 2e          	cmp    $0x2e,%r8b
  402418:	74 c9                	je     4023e3 <urlencode+0x32>
  40241a:	41 80 f8 5f          	cmp    $0x5f,%r8b
  40241e:	74 c3                	je     4023e3 <urlencode+0x32>
  402420:	41 8d 40 d0          	lea    -0x30(%r8),%eax
  402424:	3c 09                	cmp    $0x9,%al
  402426:	76 bb                	jbe    4023e3 <urlencode+0x32>
  402428:	41 8d 40 bf          	lea    -0x41(%r8),%eax
  40242c:	3c 19                	cmp    $0x19,%al
  40242e:	76 b3                	jbe    4023e3 <urlencode+0x32>
  402430:	41 8d 40 9f          	lea    -0x61(%r8),%eax
  402434:	3c 19                	cmp    $0x19,%al
  402436:	76 ab                	jbe    4023e3 <urlencode+0x32>
  402438:	41 80 f8 20          	cmp    $0x20,%r8b
  40243c:	74 56                	je     402494 <urlencode+0xe3>
  40243e:	41 8d 40 e0          	lea    -0x20(%r8),%eax
  402442:	3c 5f                	cmp    $0x5f,%al
  402444:	0f 96 c2             	setbe  %dl
  402447:	41 80 f8 09          	cmp    $0x9,%r8b
  40244b:	0f 94 c0             	sete   %al
  40244e:	08 c2                	or     %al,%dl
  402450:	74 4f                	je     4024a1 <urlencode+0xf0>
  402452:	48 89 e7             	mov    %rsp,%rdi
  402455:	45 0f b6 c0          	movzbl %r8b,%r8d
  402459:	48 8d 0d f8 12 00 00 	lea    0x12f8(%rip),%rcx        # 403758 <trans_char+0xa8>
  402460:	ba 08 00 00 00       	mov    $0x8,%edx
  402465:	be 01 00 00 00       	mov    $0x1,%esi
  40246a:	b8 00 00 00 00       	mov    $0x0,%eax
  40246f:	e8 ec e9 ff ff       	callq  400e60 <__sprintf_chk@plt>
  402474:	0f b6 04 24          	movzbl (%rsp),%eax
  402478:	88 45 00             	mov    %al,0x0(%rbp)
  40247b:	0f b6 44 24 01       	movzbl 0x1(%rsp),%eax
  402480:	88 45 01             	mov    %al,0x1(%rbp)
  402483:	0f b6 44 24 02       	movzbl 0x2(%rsp),%eax
  402488:	88 45 02             	mov    %al,0x2(%rbp)
  40248b:	48 8d 6d 03          	lea    0x3(%rbp),%rbp
  40248f:	e9 57 ff ff ff       	jmpq   4023eb <urlencode+0x3a>
  402494:	c6 45 00 2b          	movb   $0x2b,0x0(%rbp)
  402498:	48 8d 6d 01          	lea    0x1(%rbp),%rbp
  40249c:	e9 4a ff ff ff       	jmpq   4023eb <urlencode+0x3a>
  4024a1:	b8 ff ff ff ff       	mov    $0xffffffff,%eax
  4024a6:	48 8b 74 24 08       	mov    0x8(%rsp),%rsi
  4024ab:	64 48 33 34 25 28 00 	xor    %fs:0x28,%rsi
  4024b2:	00 00 
  4024b4:	75 09                	jne    4024bf <urlencode+0x10e>
  4024b6:	48 83 c4 10          	add    $0x10,%rsp
  4024ba:	5b                   	pop    %rbx
  4024bb:	5d                   	pop    %rbp
  4024bc:	41 5c                	pop    %r12
  4024be:	c3                   	retq   
  4024bf:	e8 1c e8 ff ff       	callq  400ce0 <__stack_chk_fail@plt>

00000000004024c4 <submitr>:
  4024c4:	41 57                	push   %r15
  4024c6:	41 56                	push   %r14
  4024c8:	41 55                	push   %r13
  4024ca:	41 54                	push   %r12
  4024cc:	55                   	push   %rbp
  4024cd:	53                   	push   %rbx
  4024ce:	48 81 ec 68 a0 00 00 	sub    $0xa068,%rsp
  4024d5:	49 89 fd             	mov    %rdi,%r13
  4024d8:	89 74 24 14          	mov    %esi,0x14(%rsp)
  4024dc:	49 89 d7             	mov    %rdx,%r15
  4024df:	48 89 4c 24 08       	mov    %rcx,0x8(%rsp)
  4024e4:	4c 89 44 24 18       	mov    %r8,0x18(%rsp)
  4024e9:	4d 89 ce             	mov    %r9,%r14
  4024ec:	48 8b ac 24 a0 a0 00 	mov    0xa0a0(%rsp),%rbp
  4024f3:	00 
  4024f4:	64 48 8b 04 25 28 00 	mov    %fs:0x28,%rax
  4024fb:	00 00 
  4024fd:	48 89 84 24 58 a0 00 	mov    %rax,0xa058(%rsp)
  402504:	00 
  402505:	31 c0                	xor    %eax,%eax
  402507:	c7 44 24 2c 00 00 00 	movl   $0x0,0x2c(%rsp)
  40250e:	00 
  40250f:	ba 00 00 00 00       	mov    $0x0,%edx
  402514:	be 01 00 00 00       	mov    $0x1,%esi
  402519:	bf 02 00 00 00       	mov    $0x2,%edi
  40251e:	e8 4d e9 ff ff       	callq  400e70 <socket@plt>
  402523:	85 c0                	test   %eax,%eax
  402525:	0f 88 a9 02 00 00    	js     4027d4 <submitr+0x310>
  40252b:	89 c3                	mov    %eax,%ebx
  40252d:	4c 89 ef             	mov    %r13,%rdi
  402530:	e8 1b e8 ff ff       	callq  400d50 <gethostbyname@plt>
  402535:	48 85 c0             	test   %rax,%rax
  402538:	0f 84 e2 02 00 00    	je     402820 <submitr+0x35c>
  40253e:	4c 8d 64 24 30       	lea    0x30(%rsp),%r12
  402543:	48 c7 44 24 32 00 00 	movq   $0x0,0x32(%rsp)
  40254a:	00 00 
  40254c:	c7 44 24 3a 00 00 00 	movl   $0x0,0x3a(%rsp)
  402553:	00 
  402554:	66 c7 44 24 3e 00 00 	movw   $0x0,0x3e(%rsp)
  40255b:	66 c7 44 24 30 02 00 	movw   $0x2,0x30(%rsp)
  402562:	48 63 50 14          	movslq 0x14(%rax),%rdx
  402566:	48 8b 40 18          	mov    0x18(%rax),%rax
  40256a:	48 8b 30             	mov    (%rax),%rsi
  40256d:	48 8d 7c 24 34       	lea    0x34(%rsp),%rdi
  402572:	b9 0c 00 00 00       	mov    $0xc,%ecx
  402577:	e8 e4 e7 ff ff       	callq  400d60 <__memmove_chk@plt>
  40257c:	0f b7 44 24 14       	movzwl 0x14(%rsp),%eax
  402581:	66 c1 c8 08          	ror    $0x8,%ax
  402585:	66 89 44 24 32       	mov    %ax,0x32(%rsp)
  40258a:	ba 10 00 00 00       	mov    $0x10,%edx
  40258f:	4c 89 e6             	mov    %r12,%rsi
  402592:	89 df                	mov    %ebx,%edi
  402594:	e8 a7 e8 ff ff       	callq  400e40 <connect@plt>
  402599:	85 c0                	test   %eax,%eax
  40259b:	0f 88 e7 02 00 00    	js     402888 <submitr+0x3c4>
  4025a1:	48 c7 c6 ff ff ff ff 	mov    $0xffffffffffffffff,%rsi
  4025a8:	b8 00 00 00 00       	mov    $0x0,%eax
  4025ad:	48 89 f1             	mov    %rsi,%rcx
  4025b0:	4c 89 f7             	mov    %r14,%rdi
  4025b3:	f2 ae                	repnz scas %es:(%rdi),%al
  4025b5:	48 89 ca             	mov    %rcx,%rdx
  4025b8:	48 f7 d2             	not    %rdx
  4025bb:	48 89 f1             	mov    %rsi,%rcx
  4025be:	4c 89 ff             	mov    %r15,%rdi
  4025c1:	f2 ae                	repnz scas %es:(%rdi),%al
  4025c3:	48 f7 d1             	not    %rcx
  4025c6:	49 89 c8             	mov    %rcx,%r8
  4025c9:	48 89 f1             	mov    %rsi,%rcx
  4025cc:	48 8b 7c 24 08       	mov    0x8(%rsp),%rdi
  4025d1:	f2 ae                	repnz scas %es:(%rdi),%al
  4025d3:	48 f7 d1             	not    %rcx
  4025d6:	4d 8d 44 08 fe       	lea    -0x2(%r8,%rcx,1),%r8
  4025db:	48 89 f1             	mov    %rsi,%rcx
  4025de:	48 8b 7c 24 18       	mov    0x18(%rsp),%rdi
  4025e3:	f2 ae                	repnz scas %es:(%rdi),%al
  4025e5:	48 89 c8             	mov    %rcx,%rax
  4025e8:	48 f7 d0             	not    %rax
  4025eb:	49 8d 4c 00 ff       	lea    -0x1(%r8,%rax,1),%rcx
  4025f0:	48 8d 44 52 fd       	lea    -0x3(%rdx,%rdx,2),%rax
  4025f5:	48 8d 84 01 80 00 00 	lea    0x80(%rcx,%rax,1),%rax
  4025fc:	00 
  4025fd:	48 3d 00 20 00 00    	cmp    $0x2000,%rax
  402603:	0f 87 d9 02 00 00    	ja     4028e2 <submitr+0x41e>
  402609:	48 8d b4 24 50 40 00 	lea    0x4050(%rsp),%rsi
  402610:	00 
  402611:	b9 00 04 00 00       	mov    $0x400,%ecx
  402616:	b8 00 00 00 00       	mov    $0x0,%eax
  40261b:	48 89 f7             	mov    %rsi,%rdi
  40261e:	f3 48 ab             	rep stos %rax,%es:(%rdi)
  402621:	4c 89 f7             	mov    %r14,%rdi
  402624:	e8 88 fd ff ff       	callq  4023b1 <urlencode>
  402629:	85 c0                	test   %eax,%eax
  40262b:	0f 88 24 03 00 00    	js     402955 <submitr+0x491>
  402631:	4c 8d a4 24 50 20 00 	lea    0x2050(%rsp),%r12
  402638:	00 
  402639:	41 55                	push   %r13
  40263b:	48 8d 84 24 58 40 00 	lea    0x4058(%rsp),%rax
  402642:	00 
  402643:	50                   	push   %rax
  402644:	4d 89 f9             	mov    %r15,%r9
  402647:	4c 8b 44 24 18       	mov    0x18(%rsp),%r8
  40264c:	48 8d 0d 95 10 00 00 	lea    0x1095(%rip),%rcx        # 4036e8 <trans_char+0x38>
  402653:	ba 00 20 00 00       	mov    $0x2000,%edx
  402658:	be 01 00 00 00       	mov    $0x1,%esi
  40265d:	4c 89 e7             	mov    %r12,%rdi
  402660:	b8 00 00 00 00       	mov    $0x0,%eax
  402665:	e8 f6 e7 ff ff       	callq  400e60 <__sprintf_chk@plt>
  40266a:	48 c7 c1 ff ff ff ff 	mov    $0xffffffffffffffff,%rcx
  402671:	b8 00 00 00 00       	mov    $0x0,%eax
  402676:	4c 89 e7             	mov    %r12,%rdi
  402679:	f2 ae                	repnz scas %es:(%rdi),%al
  40267b:	48 89 ca             	mov    %rcx,%rdx
  40267e:	48 f7 d2             	not    %rdx
  402681:	48 8d 52 ff          	lea    -0x1(%rdx),%rdx
  402685:	4c 89 e6             	mov    %r12,%rsi
  402688:	89 df                	mov    %ebx,%edi
  40268a:	e8 95 fb ff ff       	callq  402224 <rio_writen>
  40268f:	48 83 c4 10          	add    $0x10,%rsp
  402693:	48 85 c0             	test   %rax,%rax
  402696:	0f 88 44 03 00 00    	js     4029e0 <submitr+0x51c>
  40269c:	4c 8d 64 24 40       	lea    0x40(%rsp),%r12
  4026a1:	89 de                	mov    %ebx,%esi
  4026a3:	4c 89 e7             	mov    %r12,%rdi
  4026a6:	e8 37 fb ff ff       	callq  4021e2 <rio_readinitb>
  4026ab:	48 8d b4 24 50 20 00 	lea    0x2050(%rsp),%rsi
  4026b2:	00 
  4026b3:	ba 00 20 00 00       	mov    $0x2000,%edx
  4026b8:	4c 89 e7             	mov    %r12,%rdi
  4026bb:	e8 4d fc ff ff       	callq  40230d <rio_readlineb>
  4026c0:	48 85 c0             	test   %rax,%rax
  4026c3:	0f 8e 86 03 00 00    	jle    402a4f <submitr+0x58b>
  4026c9:	48 8d 4c 24 2c       	lea    0x2c(%rsp),%rcx
  4026ce:	48 8d 94 24 50 60 00 	lea    0x6050(%rsp),%rdx
  4026d5:	00 
  4026d6:	48 8d bc 24 50 20 00 	lea    0x2050(%rsp),%rdi
  4026dd:	00 
  4026de:	4c 8d 84 24 50 80 00 	lea    0x8050(%rsp),%r8
  4026e5:	00 
  4026e6:	48 8d 35 72 10 00 00 	lea    0x1072(%rip),%rsi        # 40375f <trans_char+0xaf>
  4026ed:	b8 00 00 00 00       	mov    $0x0,%eax
  4026f2:	e8 c9 e6 ff ff       	callq  400dc0 <__isoc99_sscanf@plt>
  4026f7:	48 8d b4 24 50 20 00 	lea    0x2050(%rsp),%rsi
  4026fe:	00 
  4026ff:	b9 03 00 00 00       	mov    $0x3,%ecx
  402704:	48 8d 3d 6b 10 00 00 	lea    0x106b(%rip),%rdi        # 403776 <trans_char+0xc6>
  40270b:	f3 a6                	repz cmpsb %es:(%rdi),%ds:(%rsi)
  40270d:	0f 97 c0             	seta   %al
  402710:	1c 00                	sbb    $0x0,%al
  402712:	84 c0                	test   %al,%al
  402714:	0f 84 b3 03 00 00    	je     402acd <submitr+0x609>
  40271a:	48 8d b4 24 50 20 00 	lea    0x2050(%rsp),%rsi
  402721:	00 
  402722:	48 8d 7c 24 40       	lea    0x40(%rsp),%rdi
  402727:	ba 00 20 00 00       	mov    $0x2000,%edx
  40272c:	e8 dc fb ff ff       	callq  40230d <rio_readlineb>
  402731:	48 85 c0             	test   %rax,%rax
  402734:	7f c1                	jg     4026f7 <submitr+0x233>
  402736:	48 b8 45 72 72 6f 72 	movabs $0x43203a726f727245,%rax
  40273d:	3a 20 43 
  402740:	48 ba 6c 69 65 6e 74 	movabs $0x6e7520746e65696c,%rdx
  402747:	20 75 6e 
  40274a:	48 89 45 00          	mov    %rax,0x0(%rbp)
  40274e:	48 89 55 08          	mov    %rdx,0x8(%rbp)
  402752:	48 b8 61 62 6c 65 20 	movabs $0x206f7420656c6261,%rax
  402759:	74 6f 20 
  40275c:	48 ba 72 65 61 64 20 	movabs $0x6165682064616572,%rdx
  402763:	68 65 61 
  402766:	48 89 45 10          	mov    %rax,0x10(%rbp)
  40276a:	48 89 55 18          	mov    %rdx,0x18(%rbp)
  40276e:	48 b8 64 65 72 73 20 	movabs $0x6f72662073726564,%rax
  402775:	66 72 6f 
  402778:	48 ba 6d 20 74 68 65 	movabs $0x657220656874206d,%rdx
  40277f:	20 72 65 
  402782:	48 89 45 20          	mov    %rax,0x20(%rbp)
  402786:	48 89 55 28          	mov    %rdx,0x28(%rbp)
  40278a:	48 b8 73 75 6c 74 20 	movabs $0x72657320746c7573,%rax
  402791:	73 65 72 
  402794:	48 89 45 30          	mov    %rax,0x30(%rbp)
  402798:	c7 45 38 76 65 72 00 	movl   $0x726576,0x38(%rbp)
  40279f:	89 df                	mov    %ebx,%edi
  4027a1:	e8 7a e5 ff ff       	callq  400d20 <close@plt>
  4027a6:	b8 ff ff ff ff       	mov    $0xffffffff,%eax
  4027ab:	48 8b 9c 24 58 a0 00 	mov    0xa058(%rsp),%rbx
  4027b2:	00 
  4027b3:	64 48 33 1c 25 28 00 	xor    %fs:0x28,%rbx
  4027ba:	00 00 
  4027bc:	0f 85 7e 04 00 00    	jne    402c40 <submitr+0x77c>
  4027c2:	48 81 c4 68 a0 00 00 	add    $0xa068,%rsp
  4027c9:	5b                   	pop    %rbx
  4027ca:	5d                   	pop    %rbp
  4027cb:	41 5c                	pop    %r12
  4027cd:	41 5d                	pop    %r13
  4027cf:	41 5e                	pop    %r14
  4027d1:	41 5f                	pop    %r15
  4027d3:	c3                   	retq   
  4027d4:	48 b8 45 72 72 6f 72 	movabs $0x43203a726f727245,%rax
  4027db:	3a 20 43 
  4027de:	48 ba 6c 69 65 6e 74 	movabs $0x6e7520746e65696c,%rdx
  4027e5:	20 75 6e 
  4027e8:	48 89 45 00          	mov    %rax,0x0(%rbp)
  4027ec:	48 89 55 08          	mov    %rdx,0x8(%rbp)
  4027f0:	48 b8 61 62 6c 65 20 	movabs $0x206f7420656c6261,%rax
  4027f7:	74 6f 20 
  4027fa:	48 ba 63 72 65 61 74 	movabs $0x7320657461657263,%rdx
  402801:	65 20 73 
  402804:	48 89 45 10          	mov    %rax,0x10(%rbp)
  402808:	48 89 55 18          	mov    %rdx,0x18(%rbp)
  40280c:	c7 45 20 6f 63 6b 65 	movl   $0x656b636f,0x20(%rbp)
  402813:	66 c7 45 24 74 00    	movw   $0x74,0x24(%rbp)
  402819:	b8 ff ff ff ff       	mov    $0xffffffff,%eax
  40281e:	eb 8b                	jmp    4027ab <submitr+0x2e7>
  402820:	48 b8 45 72 72 6f 72 	movabs $0x44203a726f727245,%rax
  402827:	3a 20 44 
  40282a:	48 ba 4e 53 20 69 73 	movabs $0x6e7520736920534e,%rdx
  402831:	20 75 6e 
  402834:	48 89 45 00          	mov    %rax,0x0(%rbp)
  402838:	48 89 55 08          	mov    %rdx,0x8(%rbp)
  40283c:	48 b8 61 62 6c 65 20 	movabs $0x206f7420656c6261,%rax
  402843:	74 6f 20 
  402846:	48 ba 72 65 73 6f 6c 	movabs $0x2065766c6f736572,%rdx
  40284d:	76 65 20 
  402850:	48 89 45 10          	mov    %rax,0x10(%rbp)
  402854:	48 89 55 18          	mov    %rdx,0x18(%rbp)
  402858:	48 b8 73 65 72 76 65 	movabs $0x6120726576726573,%rax
  40285f:	72 20 61 
  402862:	48 89 45 20          	mov    %rax,0x20(%rbp)
  402866:	c7 45 28 64 64 72 65 	movl   $0x65726464,0x28(%rbp)
  40286d:	66 c7 45 2c 73 73    	movw   $0x7373,0x2c(%rbp)
  402873:	c6 45 2e 00          	movb   $0x0,0x2e(%rbp)
  402877:	89 df                	mov    %ebx,%edi
  402879:	e8 a2 e4 ff ff       	callq  400d20 <close@plt>
  40287e:	b8 ff ff ff ff       	mov    $0xffffffff,%eax
  402883:	e9 23 ff ff ff       	jmpq   4027ab <submitr+0x2e7>
  402888:	48 b8 45 72 72 6f 72 	movabs $0x55203a726f727245,%rax
  40288f:	3a 20 55 
  402892:	48 ba 6e 61 62 6c 65 	movabs $0x6f7420656c62616e,%rdx
  402899:	20 74 6f 
  40289c:	48 89 45 00          	mov    %rax,0x0(%rbp)
  4028a0:	48 89 55 08          	mov    %rdx,0x8(%rbp)
  4028a4:	48 b8 20 63 6f 6e 6e 	movabs $0x7463656e6e6f6320,%rax
  4028ab:	65 63 74 
  4028ae:	48 ba 20 74 6f 20 74 	movabs $0x20656874206f7420,%rdx
  4028b5:	68 65 20 
  4028b8:	48 89 45 10          	mov    %rax,0x10(%rbp)
  4028bc:	48 89 55 18          	mov    %rdx,0x18(%rbp)
  4028c0:	c7 45 20 73 65 72 76 	movl   $0x76726573,0x20(%rbp)
  4028c7:	66 c7 45 24 65 72    	movw   $0x7265,0x24(%rbp)
  4028cd:	c6 45 26 00          	movb   $0x0,0x26(%rbp)
  4028d1:	89 df                	mov    %ebx,%edi
  4028d3:	e8 48 e4 ff ff       	callq  400d20 <close@plt>
  4028d8:	b8 ff ff ff ff       	mov    $0xffffffff,%eax
  4028dd:	e9 c9 fe ff ff       	jmpq   4027ab <submitr+0x2e7>
  4028e2:	48 b8 45 72 72 6f 72 	movabs $0x52203a726f727245,%rax
  4028e9:	3a 20 52 
  4028ec:	48 ba 65 73 75 6c 74 	movabs $0x747320746c757365,%rdx
  4028f3:	20 73 74 
  4028f6:	48 89 45 00          	mov    %rax,0x0(%rbp)
  4028fa:	48 89 55 08          	mov    %rdx,0x8(%rbp)
  4028fe:	48 b8 72 69 6e 67 20 	movabs $0x6f6f7420676e6972,%rax
  402905:	74 6f 6f 
  402908:	48 ba 20 6c 61 72 67 	movabs $0x202e656772616c20,%rdx
  40290f:	65 2e 20 
  402912:	48 89 45 10          	mov    %rax,0x10(%rbp)
  402916:	48 89 55 18          	mov    %rdx,0x18(%rbp)
  40291a:	48 b8 49 6e 63 72 65 	movabs $0x6573616572636e49,%rax
  402921:	61 73 65 
  402924:	48 ba 20 53 55 42 4d 	movabs $0x5254494d42555320,%rdx
  40292b:	49 54 52 
  40292e:	48 89 45 20          	mov    %rax,0x20(%rbp)
  402932:	48 89 55 28          	mov    %rdx,0x28(%rbp)
  402936:	48 b8 5f 4d 41 58 42 	movabs $0x46554258414d5f,%rax
  40293d:	55 46 00 
  402940:	48 89 45 30          	mov    %rax,0x30(%rbp)
  402944:	89 df                	mov    %ebx,%edi
  402946:	e8 d5 e3 ff ff       	callq  400d20 <close@plt>
  40294b:	b8 ff ff ff ff       	mov    $0xffffffff,%eax
  402950:	e9 56 fe ff ff       	jmpq   4027ab <submitr+0x2e7>
  402955:	48 b8 45 72 72 6f 72 	movabs $0x52203a726f727245,%rax
  40295c:	3a 20 52 
  40295f:	48 ba 65 73 75 6c 74 	movabs $0x747320746c757365,%rdx
  402966:	20 73 74 
  402969:	48 89 45 00          	mov    %rax,0x0(%rbp)
  40296d:	48 89 55 08          	mov    %rdx,0x8(%rbp)
  402971:	48 b8 72 69 6e 67 20 	movabs $0x6e6f6320676e6972,%rax
  402978:	63 6f 6e 
  40297b:	48 ba 74 61 69 6e 73 	movabs $0x6e6120736e696174,%rdx
  402982:	20 61 6e 
  402985:	48 89 45 10          	mov    %rax,0x10(%rbp)
  402989:	48 89 55 18          	mov    %rdx,0x18(%rbp)
  40298d:	48 b8 20 69 6c 6c 65 	movabs $0x6c6167656c6c6920,%rax
  402994:	67 61 6c 
  402997:	48 ba 20 6f 72 20 75 	movabs $0x72706e7520726f20,%rdx
  40299e:	6e 70 72 
  4029a1:	48 89 45 20          	mov    %rax,0x20(%rbp)
  4029a5:	48 89 55 28          	mov    %rdx,0x28(%rbp)
  4029a9:	48 b8 69 6e 74 61 62 	movabs $0x20656c6261746e69,%rax
  4029b0:	6c 65 20 
  4029b3:	48 ba 63 68 61 72 61 	movabs $0x6574636172616863,%rdx
  4029ba:	63 74 65 
  4029bd:	48 89 45 30          	mov    %rax,0x30(%rbp)
  4029c1:	48 89 55 38          	mov    %rdx,0x38(%rbp)
  4029c5:	66 c7 45 40 72 2e    	movw   $0x2e72,0x40(%rbp)
  4029cb:	c6 45 42 00          	movb   $0x0,0x42(%rbp)
  4029cf:	89 df                	mov    %ebx,%edi
  4029d1:	e8 4a e3 ff ff       	callq  400d20 <close@plt>
  4029d6:	b8 ff ff ff ff       	mov    $0xffffffff,%eax
  4029db:	e9 cb fd ff ff       	jmpq   4027ab <submitr+0x2e7>
  4029e0:	48 b8 45 72 72 6f 72 	movabs $0x43203a726f727245,%rax
  4029e7:	3a 20 43 
  4029ea:	48 ba 6c 69 65 6e 74 	movabs $0x6e7520746e65696c,%rdx
  4029f1:	20 75 6e 
  4029f4:	48 89 45 00          	mov    %rax,0x0(%rbp)
  4029f8:	48 89 55 08          	mov    %rdx,0x8(%rbp)
  4029fc:	48 b8 61 62 6c 65 20 	movabs $0x206f7420656c6261,%rax
  402a03:	74 6f 20 
  402a06:	48 ba 77 72 69 74 65 	movabs $0x6f74206574697277,%rdx
  402a0d:	20 74 6f 
  402a10:	48 89 45 10          	mov    %rax,0x10(%rbp)
  402a14:	48 89 55 18          	mov    %rdx,0x18(%rbp)
  402a18:	48 b8 20 74 68 65 20 	movabs $0x7365722065687420,%rax
  402a1f:	72 65 73 
  402a22:	48 ba 75 6c 74 20 73 	movabs $0x7672657320746c75,%rdx
  402a29:	65 72 76 
  402a2c:	48 89 45 20          	mov    %rax,0x20(%rbp)
  402a30:	48 89 55 28          	mov    %rdx,0x28(%rbp)
  402a34:	66 c7 45 30 65 72    	movw   $0x7265,0x30(%rbp)
  402a3a:	c6 45 32 00          	movb   $0x0,0x32(%rbp)
  402a3e:	89 df                	mov    %ebx,%edi
  402a40:	e8 db e2 ff ff       	callq  400d20 <close@plt>
  402a45:	b8 ff ff ff ff       	mov    $0xffffffff,%eax
  402a4a:	e9 5c fd ff ff       	jmpq   4027ab <submitr+0x2e7>
  402a4f:	48 b8 45 72 72 6f 72 	movabs $0x43203a726f727245,%rax
  402a56:	3a 20 43 
  402a59:	48 ba 6c 69 65 6e 74 	movabs $0x6e7520746e65696c,%rdx
  402a60:	20 75 6e 
  402a63:	48 89 45 00          	mov    %rax,0x0(%rbp)
  402a67:	48 89 55 08          	mov    %rdx,0x8(%rbp)
  402a6b:	48 b8 61 62 6c 65 20 	movabs $0x206f7420656c6261,%rax
  402a72:	74 6f 20 
  402a75:	48 ba 72 65 61 64 20 	movabs $0x7269662064616572,%rdx
  402a7c:	66 69 72 
  402a7f:	48 89 45 10          	mov    %rax,0x10(%rbp)
  402a83:	48 89 55 18          	mov    %rdx,0x18(%rbp)
  402a87:	48 b8 73 74 20 68 65 	movabs $0x6564616568207473,%rax
  402a8e:	61 64 65 
  402a91:	48 ba 72 20 66 72 6f 	movabs $0x72206d6f72662072,%rdx
  402a98:	6d 20 72 
  402a9b:	48 89 45 20          	mov    %rax,0x20(%rbp)
  402a9f:	48 89 55 28          	mov    %rdx,0x28(%rbp)
  402aa3:	48 b8 65 73 75 6c 74 	movabs $0x657320746c757365,%rax
  402aaa:	20 73 65 
  402aad:	48 89 45 30          	mov    %rax,0x30(%rbp)
  402ab1:	c7 45 38 72 76 65 72 	movl   $0x72657672,0x38(%rbp)
  402ab8:	c6 45 3c 00          	movb   $0x0,0x3c(%rbp)
  402abc:	89 df                	mov    %ebx,%edi
  402abe:	e8 5d e2 ff ff       	callq  400d20 <close@plt>
  402ac3:	b8 ff ff ff ff       	mov    $0xffffffff,%eax
  402ac8:	e9 de fc ff ff       	jmpq   4027ab <submitr+0x2e7>
  402acd:	48 8d b4 24 50 20 00 	lea    0x2050(%rsp),%rsi
  402ad4:	00 
  402ad5:	48 8d 7c 24 40       	lea    0x40(%rsp),%rdi
  402ada:	ba 00 20 00 00       	mov    $0x2000,%edx
  402adf:	e8 29 f8 ff ff       	callq  40230d <rio_readlineb>
  402ae4:	48 85 c0             	test   %rax,%rax
  402ae7:	0f 8e 96 00 00 00    	jle    402b83 <submitr+0x6bf>
  402aed:	44 8b 44 24 2c       	mov    0x2c(%rsp),%r8d
  402af2:	41 81 f8 c8 00 00 00 	cmp    $0xc8,%r8d
  402af9:	0f 85 08 01 00 00    	jne    402c07 <submitr+0x743>
  402aff:	48 8d b4 24 50 20 00 	lea    0x2050(%rsp),%rsi
  402b06:	00 
  402b07:	48 89 ef             	mov    %rbp,%rdi
  402b0a:	e8 a1 e1 ff ff       	callq  400cb0 <strcpy@plt>
  402b0f:	89 df                	mov    %ebx,%edi
  402b11:	e8 0a e2 ff ff       	callq  400d20 <close@plt>
  402b16:	b9 04 00 00 00       	mov    $0x4,%ecx
  402b1b:	48 8d 3d 4e 0c 00 00 	lea    0xc4e(%rip),%rdi        # 403770 <trans_char+0xc0>
  402b22:	48 89 ee             	mov    %rbp,%rsi
  402b25:	f3 a6                	repz cmpsb %es:(%rdi),%ds:(%rsi)
  402b27:	0f 97 c0             	seta   %al
  402b2a:	1c 00                	sbb    $0x0,%al
  402b2c:	0f be c0             	movsbl %al,%eax
  402b2f:	85 c0                	test   %eax,%eax
  402b31:	0f 84 74 fc ff ff    	je     4027ab <submitr+0x2e7>
  402b37:	b9 05 00 00 00       	mov    $0x5,%ecx
  402b3c:	48 8d 3d 31 0c 00 00 	lea    0xc31(%rip),%rdi        # 403774 <trans_char+0xc4>
  402b43:	48 89 ee             	mov    %rbp,%rsi
  402b46:	f3 a6                	repz cmpsb %es:(%rdi),%ds:(%rsi)
  402b48:	0f 97 c0             	seta   %al
  402b4b:	1c 00                	sbb    $0x0,%al
  402b4d:	0f be c0             	movsbl %al,%eax
  402b50:	85 c0                	test   %eax,%eax
  402b52:	0f 84 53 fc ff ff    	je     4027ab <submitr+0x2e7>
  402b58:	b9 03 00 00 00       	mov    $0x3,%ecx
  402b5d:	48 8d 3d 15 0c 00 00 	lea    0xc15(%rip),%rdi        # 403779 <trans_char+0xc9>
  402b64:	48 89 ee             	mov    %rbp,%rsi
  402b67:	f3 a6                	repz cmpsb %es:(%rdi),%ds:(%rsi)
  402b69:	0f 97 c0             	seta   %al
  402b6c:	1c 00                	sbb    $0x0,%al
  402b6e:	0f be c0             	movsbl %al,%eax
  402b71:	85 c0                	test   %eax,%eax
  402b73:	0f 84 32 fc ff ff    	je     4027ab <submitr+0x2e7>
  402b79:	b8 ff ff ff ff       	mov    $0xffffffff,%eax
  402b7e:	e9 28 fc ff ff       	jmpq   4027ab <submitr+0x2e7>
  402b83:	48 b8 45 72 72 6f 72 	movabs $0x43203a726f727245,%rax
  402b8a:	3a 20 43 
  402b8d:	48 ba 6c 69 65 6e 74 	movabs $0x6e7520746e65696c,%rdx
  402b94:	20 75 6e 
  402b97:	48 89 45 00          	mov    %rax,0x0(%rbp)
  402b9b:	48 89 55 08          	mov    %rdx,0x8(%rbp)
  402b9f:	48 b8 61 62 6c 65 20 	movabs $0x206f7420656c6261,%rax
  402ba6:	74 6f 20 
  402ba9:	48 ba 72 65 61 64 20 	movabs $0x6174732064616572,%rdx
  402bb0:	73 74 61 
  402bb3:	48 89 45 10          	mov    %rax,0x10(%rbp)
  402bb7:	48 89 55 18          	mov    %rdx,0x18(%rbp)
  402bbb:	48 b8 74 75 73 20 6d 	movabs $0x7373656d20737574,%rax
  402bc2:	65 73 73 
  402bc5:	48 ba 61 67 65 20 66 	movabs $0x6d6f726620656761,%rdx
  402bcc:	72 6f 6d 
  402bcf:	48 89 45 20          	mov    %rax,0x20(%rbp)
  402bd3:	48 89 55 28          	mov    %rdx,0x28(%rbp)
  402bd7:	48 b8 20 72 65 73 75 	movabs $0x20746c7573657220,%rax
  402bde:	6c 74 20 
  402be1:	48 89 45 30          	mov    %rax,0x30(%rbp)
  402be5:	c7 45 38 73 65 72 76 	movl   $0x76726573,0x38(%rbp)
  402bec:	66 c7 45 3c 65 72    	movw   $0x7265,0x3c(%rbp)
  402bf2:	c6 45 3e 00          	movb   $0x0,0x3e(%rbp)
  402bf6:	89 df                	mov    %ebx,%edi
  402bf8:	e8 23 e1 ff ff       	callq  400d20 <close@plt>
  402bfd:	b8 ff ff ff ff       	mov    $0xffffffff,%eax
  402c02:	e9 a4 fb ff ff       	jmpq   4027ab <submitr+0x2e7>
  402c07:	4c 8d 8c 24 50 80 00 	lea    0x8050(%rsp),%r9
  402c0e:	00 
  402c0f:	48 8d 0d 12 0b 00 00 	lea    0xb12(%rip),%rcx        # 403728 <trans_char+0x78>
  402c16:	48 c7 c2 ff ff ff ff 	mov    $0xffffffffffffffff,%rdx
  402c1d:	be 01 00 00 00       	mov    $0x1,%esi
  402c22:	48 89 ef             	mov    %rbp,%rdi
  402c25:	b8 00 00 00 00       	mov    $0x0,%eax
  402c2a:	e8 31 e2 ff ff       	callq  400e60 <__sprintf_chk@plt>
  402c2f:	89 df                	mov    %ebx,%edi
  402c31:	e8 ea e0 ff ff       	callq  400d20 <close@plt>
  402c36:	b8 ff ff ff ff       	mov    $0xffffffff,%eax
  402c3b:	e9 6b fb ff ff       	jmpq   4027ab <submitr+0x2e7>
  402c40:	e8 9b e0 ff ff       	callq  400ce0 <__stack_chk_fail@plt>

0000000000402c45 <init_timeout>:
  402c45:	85 ff                	test   %edi,%edi
  402c47:	74 28                	je     402c71 <init_timeout+0x2c>
  402c49:	53                   	push   %rbx
  402c4a:	89 fb                	mov    %edi,%ebx
  402c4c:	85 ff                	test   %edi,%edi
  402c4e:	78 1a                	js     402c6a <init_timeout+0x25>
  402c50:	48 8d 35 9d f5 ff ff 	lea    -0xa63(%rip),%rsi        # 4021f4 <sigalrm_handler>
  402c57:	bf 0e 00 00 00       	mov    $0xe,%edi
  402c5c:	e8 df e0 ff ff       	callq  400d40 <signal@plt>
  402c61:	89 df                	mov    %ebx,%edi
  402c63:	e8 a8 e0 ff ff       	callq  400d10 <alarm@plt>
  402c68:	5b                   	pop    %rbx
  402c69:	c3                   	retq   
  402c6a:	bb 00 00 00 00       	mov    $0x0,%ebx
  402c6f:	eb df                	jmp    402c50 <init_timeout+0xb>
  402c71:	f3 c3                	repz retq 

0000000000402c73 <init_driver>:
  402c73:	41 54                	push   %r12
  402c75:	55                   	push   %rbp
  402c76:	53                   	push   %rbx
  402c77:	48 83 ec 20          	sub    $0x20,%rsp
  402c7b:	49 89 fc             	mov    %rdi,%r12
  402c7e:	64 48 8b 04 25 28 00 	mov    %fs:0x28,%rax
  402c85:	00 00 
  402c87:	48 89 44 24 18       	mov    %rax,0x18(%rsp)
  402c8c:	31 c0                	xor    %eax,%eax
  402c8e:	be 01 00 00 00       	mov    $0x1,%esi
  402c93:	bf 0d 00 00 00       	mov    $0xd,%edi
  402c98:	e8 a3 e0 ff ff       	callq  400d40 <signal@plt>
  402c9d:	be 01 00 00 00       	mov    $0x1,%esi
  402ca2:	bf 1d 00 00 00       	mov    $0x1d,%edi
  402ca7:	e8 94 e0 ff ff       	callq  400d40 <signal@plt>
  402cac:	be 01 00 00 00       	mov    $0x1,%esi
  402cb1:	bf 1d 00 00 00       	mov    $0x1d,%edi
  402cb6:	e8 85 e0 ff ff       	callq  400d40 <signal@plt>
  402cbb:	ba 00 00 00 00       	mov    $0x0,%edx
  402cc0:	be 01 00 00 00       	mov    $0x1,%esi
  402cc5:	bf 02 00 00 00       	mov    $0x2,%edi
  402cca:	e8 a1 e1 ff ff       	callq  400e70 <socket@plt>
  402ccf:	85 c0                	test   %eax,%eax
  402cd1:	0f 88 a3 00 00 00    	js     402d7a <init_driver+0x107>
  402cd7:	89 c3                	mov    %eax,%ebx
  402cd9:	48 8d 3d 9c 0a 00 00 	lea    0xa9c(%rip),%rdi        # 40377c <trans_char+0xcc>
  402ce0:	e8 6b e0 ff ff       	callq  400d50 <gethostbyname@plt>
  402ce5:	48 85 c0             	test   %rax,%rax
  402ce8:	0f 84 df 00 00 00    	je     402dcd <init_driver+0x15a>
  402cee:	48 89 e5             	mov    %rsp,%rbp
  402cf1:	48 c7 44 24 02 00 00 	movq   $0x0,0x2(%rsp)
  402cf8:	00 00 
  402cfa:	c7 45 0a 00 00 00 00 	movl   $0x0,0xa(%rbp)
  402d01:	66 c7 45 0e 00 00    	movw   $0x0,0xe(%rbp)
  402d07:	66 c7 04 24 02 00    	movw   $0x2,(%rsp)
  402d0d:	48 63 50 14          	movslq 0x14(%rax),%rdx
  402d11:	48 8b 40 18          	mov    0x18(%rax),%rax
  402d15:	48 8b 30             	mov    (%rax),%rsi
  402d18:	48 8d 7d 04          	lea    0x4(%rbp),%rdi
  402d1c:	b9 0c 00 00 00       	mov    $0xc,%ecx
  402d21:	e8 3a e0 ff ff       	callq  400d60 <__memmove_chk@plt>
  402d26:	66 c7 44 24 02 1f 44 	movw   $0x441f,0x2(%rsp)
  402d2d:	ba 10 00 00 00       	mov    $0x10,%edx
  402d32:	48 89 ee             	mov    %rbp,%rsi
  402d35:	89 df                	mov    %ebx,%edi
  402d37:	e8 04 e1 ff ff       	callq  400e40 <connect@plt>
  402d3c:	85 c0                	test   %eax,%eax
  402d3e:	0f 88 fb 00 00 00    	js     402e3f <init_driver+0x1cc>
  402d44:	89 df                	mov    %ebx,%edi
  402d46:	e8 d5 df ff ff       	callq  400d20 <close@plt>
  402d4b:	66 41 c7 04 24 4f 4b 	movw   $0x4b4f,(%r12)
  402d52:	41 c6 44 24 02 00    	movb   $0x0,0x2(%r12)
  402d58:	b8 00 00 00 00       	mov    $0x0,%eax
  402d5d:	48 8b 4c 24 18       	mov    0x18(%rsp),%rcx
  402d62:	64 48 33 0c 25 28 00 	xor    %fs:0x28,%rcx
  402d69:	00 00 
  402d6b:	0f 85 28 01 00 00    	jne    402e99 <init_driver+0x226>
  402d71:	48 83 c4 20          	add    $0x20,%rsp
  402d75:	5b                   	pop    %rbx
  402d76:	5d                   	pop    %rbp
  402d77:	41 5c                	pop    %r12
  402d79:	c3                   	retq   
  402d7a:	48 b8 45 72 72 6f 72 	movabs $0x43203a726f727245,%rax
  402d81:	3a 20 43 
  402d84:	48 ba 6c 69 65 6e 74 	movabs $0x6e7520746e65696c,%rdx
  402d8b:	20 75 6e 
  402d8e:	49 89 04 24          	mov    %rax,(%r12)
  402d92:	49 89 54 24 08       	mov    %rdx,0x8(%r12)
  402d97:	48 b8 61 62 6c 65 20 	movabs $0x206f7420656c6261,%rax
  402d9e:	74 6f 20 
  402da1:	48 ba 63 72 65 61 74 	movabs $0x7320657461657263,%rdx
  402da8:	65 20 73 
  402dab:	49 89 44 24 10       	mov    %rax,0x10(%r12)
  402db0:	49 89 54 24 18       	mov    %rdx,0x18(%r12)
  402db5:	41 c7 44 24 20 6f 63 	movl   $0x656b636f,0x20(%r12)
  402dbc:	6b 65 
  402dbe:	66 41 c7 44 24 24 74 	movw   $0x74,0x24(%r12)
  402dc5:	00 
  402dc6:	b8 ff ff ff ff       	mov    $0xffffffff,%eax
  402dcb:	eb 90                	jmp    402d5d <init_driver+0xea>
  402dcd:	48 b8 45 72 72 6f 72 	movabs $0x44203a726f727245,%rax
  402dd4:	3a 20 44 
  402dd7:	48 ba 4e 53 20 69 73 	movabs $0x6e7520736920534e,%rdx
  402dde:	20 75 6e 
  402de1:	49 89 04 24          	mov    %rax,(%r12)
  402de5:	49 89 54 24 08       	mov    %rdx,0x8(%r12)
  402dea:	48 b8 61 62 6c 65 20 	movabs $0x206f7420656c6261,%rax
  402df1:	74 6f 20 
  402df4:	48 ba 72 65 73 6f 6c 	movabs $0x2065766c6f736572,%rdx
  402dfb:	76 65 20 
  402dfe:	49 89 44 24 10       	mov    %rax,0x10(%r12)
  402e03:	49 89 54 24 18       	mov    %rdx,0x18(%r12)
  402e08:	48 b8 73 65 72 76 65 	movabs $0x6120726576726573,%rax
  402e0f:	72 20 61 
  402e12:	49 89 44 24 20       	mov    %rax,0x20(%r12)
  402e17:	41 c7 44 24 28 64 64 	movl   $0x65726464,0x28(%r12)
  402e1e:	72 65 
  402e20:	66 41 c7 44 24 2c 73 	movw   $0x7373,0x2c(%r12)
  402e27:	73 
  402e28:	41 c6 44 24 2e 00    	movb   $0x0,0x2e(%r12)
  402e2e:	89 df                	mov    %ebx,%edi
  402e30:	e8 eb de ff ff       	callq  400d20 <close@plt>
  402e35:	b8 ff ff ff ff       	mov    $0xffffffff,%eax
  402e3a:	e9 1e ff ff ff       	jmpq   402d5d <init_driver+0xea>
  402e3f:	48 b8 45 72 72 6f 72 	movabs $0x55203a726f727245,%rax
  402e46:	3a 20 55 
  402e49:	48 ba 6e 61 62 6c 65 	movabs $0x6f7420656c62616e,%rdx
  402e50:	20 74 6f 
  402e53:	49 89 04 24          	mov    %rax,(%r12)
  402e57:	49 89 54 24 08       	mov    %rdx,0x8(%r12)
  402e5c:	48 b8 20 63 6f 6e 6e 	movabs $0x7463656e6e6f6320,%rax
  402e63:	65 63 74 
  402e66:	48 ba 20 74 6f 20 73 	movabs $0x76726573206f7420,%rdx
  402e6d:	65 72 76 
  402e70:	49 89 44 24 10       	mov    %rax,0x10(%r12)
  402e75:	49 89 54 24 18       	mov    %rdx,0x18(%r12)
  402e7a:	66 41 c7 44 24 20 65 	movw   $0x7265,0x20(%r12)
  402e81:	72 
  402e82:	41 c6 44 24 22 00    	movb   $0x0,0x22(%r12)
  402e88:	89 df                	mov    %ebx,%edi
  402e8a:	e8 91 de ff ff       	callq  400d20 <close@plt>
  402e8f:	b8 ff ff ff ff       	mov    $0xffffffff,%eax
  402e94:	e9 c4 fe ff ff       	jmpq   402d5d <init_driver+0xea>
  402e99:	e8 42 de ff ff       	callq  400ce0 <__stack_chk_fail@plt>

0000000000402e9e <driver_post>:
  402e9e:	53                   	push   %rbx
  402e9f:	4c 89 cb             	mov    %r9,%rbx
  402ea2:	45 85 c0             	test   %r8d,%r8d
  402ea5:	75 18                	jne    402ebf <driver_post+0x21>
  402ea7:	48 85 ff             	test   %rdi,%rdi
  402eaa:	74 05                	je     402eb1 <driver_post+0x13>
  402eac:	80 3f 00             	cmpb   $0x0,(%rdi)
  402eaf:	75 37                	jne    402ee8 <driver_post+0x4a>
  402eb1:	66 c7 03 4f 4b       	movw   $0x4b4f,(%rbx)
  402eb6:	c6 43 02 00          	movb   $0x0,0x2(%rbx)
  402eba:	44 89 c0             	mov    %r8d,%eax
  402ebd:	5b                   	pop    %rbx
  402ebe:	c3                   	retq   
  402ebf:	48 89 ca             	mov    %rcx,%rdx
  402ec2:	48 8d 35 c3 08 00 00 	lea    0x8c3(%rip),%rsi        # 40378c <trans_char+0xdc>
  402ec9:	bf 01 00 00 00       	mov    $0x1,%edi
  402ece:	b8 00 00 00 00       	mov    $0x0,%eax
  402ed3:	e8 08 df ff ff       	callq  400de0 <__printf_chk@plt>
  402ed8:	66 c7 03 4f 4b       	movw   $0x4b4f,(%rbx)
  402edd:	c6 43 02 00          	movb   $0x0,0x2(%rbx)
  402ee1:	b8 00 00 00 00       	mov    $0x0,%eax
  402ee6:	eb d5                	jmp    402ebd <driver_post+0x1f>
  402ee8:	48 83 ec 08          	sub    $0x8,%rsp
  402eec:	41 51                	push   %r9
  402eee:	49 89 c9             	mov    %rcx,%r9
  402ef1:	49 89 d0             	mov    %rdx,%r8
  402ef4:	48 89 f9             	mov    %rdi,%rcx
  402ef7:	48 89 f2             	mov    %rsi,%rdx
  402efa:	be 44 1f 00 00       	mov    $0x1f44,%esi
  402eff:	48 8d 3d 76 08 00 00 	lea    0x876(%rip),%rdi        # 40377c <trans_char+0xcc>
  402f06:	e8 b9 f5 ff ff       	callq  4024c4 <submitr>
  402f0b:	48 83 c4 10          	add    $0x10,%rsp
  402f0f:	eb ac                	jmp    402ebd <driver_post+0x1f>

0000000000402f11 <check>:
  402f11:	89 f8                	mov    %edi,%eax
  402f13:	c1 e8 1c             	shr    $0x1c,%eax
  402f16:	85 c0                	test   %eax,%eax
  402f18:	74 1d                	je     402f37 <check+0x26>
  402f1a:	b9 00 00 00 00       	mov    $0x0,%ecx
  402f1f:	83 f9 1f             	cmp    $0x1f,%ecx
  402f22:	7f 0d                	jg     402f31 <check+0x20>
  402f24:	89 f8                	mov    %edi,%eax
  402f26:	d3 e8                	shr    %cl,%eax
  402f28:	3c 0a                	cmp    $0xa,%al
  402f2a:	74 11                	je     402f3d <check+0x2c>
  402f2c:	83 c1 08             	add    $0x8,%ecx
  402f2f:	eb ee                	jmp    402f1f <check+0xe>
  402f31:	b8 01 00 00 00       	mov    $0x1,%eax
  402f36:	c3                   	retq   
  402f37:	b8 00 00 00 00       	mov    $0x0,%eax
  402f3c:	c3                   	retq   
  402f3d:	b8 00 00 00 00       	mov    $0x0,%eax
  402f42:	c3                   	retq   

0000000000402f43 <gencookie>:
  402f43:	53                   	push   %rbx
  402f44:	83 c7 01             	add    $0x1,%edi
  402f47:	e8 44 dd ff ff       	callq  400c90 <srandom@plt>
  402f4c:	e8 4f de ff ff       	callq  400da0 <random@plt>
  402f51:	89 c3                	mov    %eax,%ebx
  402f53:	89 c7                	mov    %eax,%edi
  402f55:	e8 b7 ff ff ff       	callq  402f11 <check>
  402f5a:	85 c0                	test   %eax,%eax
  402f5c:	74 ee                	je     402f4c <gencookie+0x9>
  402f5e:	89 d8                	mov    %ebx,%eax
  402f60:	5b                   	pop    %rbx
  402f61:	c3                   	retq   
  402f62:	66 2e 0f 1f 84 00 00 	nopw   %cs:0x0(%rax,%rax,1)
  402f69:	00 00 00 
  402f6c:	0f 1f 40 00          	nopl   0x0(%rax)

0000000000402f70 <__libc_csu_init>:
  402f70:	41 57                	push   %r15
  402f72:	41 56                	push   %r14
  402f74:	49 89 d7             	mov    %rdx,%r15
  402f77:	41 55                	push   %r13
  402f79:	41 54                	push   %r12
  402f7b:	4c 8d 25 8e 1e 20 00 	lea    0x201e8e(%rip),%r12        # 604e10 <__frame_dummy_init_array_entry>
  402f82:	55                   	push   %rbp
  402f83:	48 8d 2d 8e 1e 20 00 	lea    0x201e8e(%rip),%rbp        # 604e18 <__init_array_end>
  402f8a:	53                   	push   %rbx
  402f8b:	41 89 fd             	mov    %edi,%r13d
  402f8e:	49 89 f6             	mov    %rsi,%r14
  402f91:	4c 29 e5             	sub    %r12,%rbp
  402f94:	48 83 ec 08          	sub    $0x8,%rsp
  402f98:	48 c1 fd 03          	sar    $0x3,%rbp
  402f9c:	e8 a7 dc ff ff       	callq  400c48 <_init>
  402fa1:	48 85 ed             	test   %rbp,%rbp
  402fa4:	74 20                	je     402fc6 <__libc_csu_init+0x56>
  402fa6:	31 db                	xor    %ebx,%ebx
  402fa8:	0f 1f 84 00 00 00 00 	nopl   0x0(%rax,%rax,1)
  402faf:	00 
  402fb0:	4c 89 fa             	mov    %r15,%rdx
  402fb3:	4c 89 f6             	mov    %r14,%rsi
  402fb6:	44 89 ef             	mov    %r13d,%edi
  402fb9:	41 ff 14 dc          	callq  *(%r12,%rbx,8)
  402fbd:	48 83 c3 01          	add    $0x1,%rbx
  402fc1:	48 39 dd             	cmp    %rbx,%rbp
  402fc4:	75 ea                	jne    402fb0 <__libc_csu_init+0x40>
  402fc6:	48 83 c4 08          	add    $0x8,%rsp
  402fca:	5b                   	pop    %rbx
  402fcb:	5d                   	pop    %rbp
  402fcc:	41 5c                	pop    %r12
  402fce:	41 5d                	pop    %r13
  402fd0:	41 5e                	pop    %r14
  402fd2:	41 5f                	pop    %r15
  402fd4:	c3                   	retq   
  402fd5:	90                   	nop
  402fd6:	66 2e 0f 1f 84 00 00 	nopw   %cs:0x0(%rax,%rax,1)
  402fdd:	00 00 00 

0000000000402fe0 <__libc_csu_fini>:
  402fe0:	f3 c3                	repz retq 

Disassembly of section .fini:

0000000000402fe4 <_fini>:
  402fe4:	48 83 ec 08          	sub    $0x8,%rsp
  402fe8:	48 83 c4 08          	add    $0x8,%rsp
  402fec:	c3                   	retq   
